
build/firmware.elf:     file format elf32-littlearm


Disassembly of section .vectors:

00000000 <tab>:
   0:	20003000 	andcs	r3, r0, r0
   4:	000005fd 	strdeq	r0, [r0], -sp
	...
  3c:	00000501 	andeq	r0, r0, r1, lsl #10
	...

Disassembly of section .cfmprotect:

00000400 <cfm>:
 400:	ffffffff 			@ <UNDEFINED> instruction: 0xffffffff
 404:	ffffffff 			@ <UNDEFINED> instruction: 0xffffffff
 408:	ffffffff 			@ <UNDEFINED> instruction: 0xffffffff
 40c:	fffffffe 			@ <UNDEFINED> instruction: 0xfffffffe

Disassembly of section .text:

00000410 <timer_expired>:
     410:	4b11      	ldr	r3, [pc, #68]	@ (458 <timer_expired+0x48>)
     412:	681b      	ldr	r3, [r3, #0]
     414:	185b      	adds	r3, r3, r1
     416:	6802      	ldr	r2, [r0, #0]
     418:	4293      	cmp	r3, r2
     41a:	d201      	bcs.n	420 <timer_expired+0x10>
     41c:	2300      	movs	r3, #0
     41e:	6003      	str	r3, [r0, #0]
     420:	6803      	ldr	r3, [r0, #0]
     422:	2b00      	cmp	r3, #0
     424:	d103      	bne.n	42e <timer_expired+0x1e>
     426:	4b0c      	ldr	r3, [pc, #48]	@ (458 <timer_expired+0x48>)
     428:	681b      	ldr	r3, [r3, #0]
     42a:	185b      	adds	r3, r3, r1
     42c:	6003      	str	r3, [r0, #0]
     42e:	6803      	ldr	r3, [r0, #0]
     430:	4a09      	ldr	r2, [pc, #36]	@ (458 <timer_expired+0x48>)
     432:	6812      	ldr	r2, [r2, #0]
     434:	4293      	cmp	r3, r2
     436:	d80c      	bhi.n	452 <timer_expired+0x42>
     438:	4a07      	ldr	r2, [pc, #28]	@ (458 <timer_expired+0x48>)
     43a:	6812      	ldr	r2, [r2, #0]
     43c:	1ad2      	subs	r2, r2, r3
     43e:	428a      	cmp	r2, r1
     440:	d905      	bls.n	44e <timer_expired+0x3e>
     442:	4b05      	ldr	r3, [pc, #20]	@ (458 <timer_expired+0x48>)
     444:	681b      	ldr	r3, [r3, #0]
     446:	1859      	adds	r1, r3, r1
     448:	6001      	str	r1, [r0, #0]
     44a:	2001      	movs	r0, #1
     44c:	4770      	bx	lr
     44e:	1859      	adds	r1, r3, r1
     450:	e7fa      	b.n	448 <timer_expired+0x38>
     452:	2000      	movs	r0, #0
     454:	e7fa      	b.n	44c <timer_expired+0x3c>
     456:	46c0      	nop			@ (mov r8, r8)
     458:	1ffff1ac 	svcne	0x00fff1ac

0000045c <uart_init>:
     45c:	b570      	push	{r4, r5, r6, lr}
     45e:	0004      	movs	r4, r0
     460:	4b1f      	ldr	r3, [pc, #124]	@ (4e0 <uart_init+0x84>)
     462:	4298      	cmp	r0, r3
     464:	d02a      	beq.n	4bc <uart_init+0x60>
     466:	4b1f      	ldr	r3, [pc, #124]	@ (4e4 <uart_init+0x88>)
     468:	4298      	cmp	r0, r3
     46a:	d126      	bne.n	4ba <uart_init+0x5e>
     46c:	4b1e      	ldr	r3, [pc, #120]	@ (4e8 <uart_init+0x8c>)
     46e:	4d1f      	ldr	r5, [pc, #124]	@ (4ec <uart_init+0x90>)
     470:	5958      	ldr	r0, [r3, r5]
     472:	2280      	movs	r2, #128	@ 0x80
     474:	0152      	lsls	r2, r2, #5
     476:	4310      	orrs	r0, r2
     478:	5158      	str	r0, [r3, r5]
     47a:	481d      	ldr	r0, [pc, #116]	@ (4f0 <uart_init+0x94>)
     47c:	581d      	ldr	r5, [r3, r0]
     47e:	432a      	orrs	r2, r5
     480:	501a      	str	r2, [r3, r0]
     482:	4b1c      	ldr	r3, [pc, #112]	@ (4f4 <uart_init+0x98>)
     484:	22c0      	movs	r2, #192	@ 0xc0
     486:	0092      	lsls	r2, r2, #2
     488:	609a      	str	r2, [r3, #8]
     48a:	60da      	str	r2, [r3, #12]
     48c:	78e3      	ldrb	r3, [r4, #3]
     48e:	220c      	movs	r2, #12
     490:	4393      	bics	r3, r2
     492:	70e3      	strb	r3, [r4, #3]
     494:	2300      	movs	r3, #0
     496:	70a3      	strb	r3, [r4, #2]
     498:	0109      	lsls	r1, r1, #4
     49a:	4817      	ldr	r0, [pc, #92]	@ (4f8 <uart_init+0x9c>)
     49c:	f001 f864 	bl	1568 <__udivsi3>
     4a0:	7822      	ldrb	r2, [r4, #0]
     4a2:	0403      	lsls	r3, r0, #16
     4a4:	0e1b      	lsrs	r3, r3, #24
     4a6:	211f      	movs	r1, #31
     4a8:	400b      	ands	r3, r1
     4aa:	4313      	orrs	r3, r2
     4ac:	7023      	strb	r3, [r4, #0]
     4ae:	b2c0      	uxtb	r0, r0
     4b0:	7060      	strb	r0, [r4, #1]
     4b2:	78e3      	ldrb	r3, [r4, #3]
     4b4:	222c      	movs	r2, #44	@ 0x2c
     4b6:	4313      	orrs	r3, r2
     4b8:	70e3      	strb	r3, [r4, #3]
     4ba:	bd70      	pop	{r4, r5, r6, pc}
     4bc:	4b0a      	ldr	r3, [pc, #40]	@ (4e8 <uart_init+0x8c>)
     4be:	4d0b      	ldr	r5, [pc, #44]	@ (4ec <uart_init+0x90>)
     4c0:	5958      	ldr	r0, [r3, r5]
     4c2:	2280      	movs	r2, #128	@ 0x80
     4c4:	0112      	lsls	r2, r2, #4
     4c6:	4310      	orrs	r0, r2
     4c8:	5158      	str	r0, [r3, r5]
     4ca:	4809      	ldr	r0, [pc, #36]	@ (4f0 <uart_init+0x94>)
     4cc:	581d      	ldr	r5, [r3, r0]
     4ce:	432a      	orrs	r2, r5
     4d0:	501a      	str	r2, [r3, r0]
     4d2:	4b0a      	ldr	r3, [pc, #40]	@ (4fc <uart_init+0xa0>)
     4d4:	22c0      	movs	r2, #192	@ 0xc0
     4d6:	0092      	lsls	r2, r2, #2
     4d8:	60da      	str	r2, [r3, #12]
     4da:	611a      	str	r2, [r3, #16]
     4dc:	e7d6      	b.n	48c <uart_init+0x30>
     4de:	46c0      	nop			@ (mov r8, r8)
     4e0:	4006b000 	andmi	fp, r6, r0
     4e4:	4006c000 	andmi	ip, r6, r0
     4e8:	40047000 	andmi	r7, r4, r0
     4ec:	00001034 	andeq	r1, r0, r4, lsr r0
     4f0:	00001038 	andeq	r1, r0, r8, lsr r0
     4f4:	4004c000 	andmi	ip, r4, r0
     4f8:	00a037a0 	adceq	r3, r0, r0, lsr #15
     4fc:	4004b000 	andmi	fp, r4, r0

00000500 <SysTick_Handler>:
     500:	4a02      	ldr	r2, [pc, #8]	@ (50c <SysTick_Handler+0xc>)
     502:	6813      	ldr	r3, [r2, #0]
     504:	3301      	adds	r3, #1
     506:	6013      	str	r3, [r2, #0]
     508:	4770      	bx	lr
     50a:	46c0      	nop			@ (mov r8, r8)
     50c:	1ffff1ac 	svcne	0x00fff1ac

00000510 <main>:
     510:	b510      	push	{r4, lr}
     512:	b082      	sub	sp, #8
     514:	4b2a      	ldr	r3, [pc, #168]	@ (5c0 <main+0xb0>)
     516:	4a2b      	ldr	r2, [pc, #172]	@ (5c4 <main+0xb4>)
     518:	605a      	str	r2, [r3, #4]
     51a:	2400      	movs	r4, #0
     51c:	609c      	str	r4, [r3, #8]
     51e:	2207      	movs	r2, #7
     520:	601a      	str	r2, [r3, #0]
     522:	2196      	movs	r1, #150	@ 0x96
     524:	0189      	lsls	r1, r1, #6
     526:	4828      	ldr	r0, [pc, #160]	@ (5c8 <main+0xb8>)
     528:	f7ff ff98 	bl	45c <uart_init>
     52c:	4927      	ldr	r1, [pc, #156]	@ (5cc <main+0xbc>)
     52e:	4a28      	ldr	r2, [pc, #160]	@ (5d0 <main+0xc0>)
     530:	5888      	ldr	r0, [r1, r2]
     532:	23c0      	movs	r3, #192	@ 0xc0
     534:	011b      	lsls	r3, r3, #4
     536:	4303      	orrs	r3, r0
     538:	508b      	str	r3, [r1, r2]
     53a:	4a26      	ldr	r2, [pc, #152]	@ (5d4 <main+0xc4>)
     53c:	2380      	movs	r3, #128	@ 0x80
     53e:	005b      	lsls	r3, r3, #1
     540:	6313      	str	r3, [r2, #48]	@ 0x30
     542:	6253      	str	r3, [r2, #36]	@ 0x24
     544:	4a24      	ldr	r2, [pc, #144]	@ (5d8 <main+0xc8>)
     546:	6493      	str	r3, [r2, #72]	@ 0x48
     548:	64d3      	str	r3, [r2, #76]	@ 0x4c
     54a:	4b24      	ldr	r3, [pc, #144]	@ (5dc <main+0xcc>)
     54c:	6959      	ldr	r1, [r3, #20]
     54e:	2280      	movs	r2, #128	@ 0x80
     550:	0092      	lsls	r2, r2, #2
     552:	4311      	orrs	r1, r2
     554:	6159      	str	r1, [r3, #20]
     556:	6819      	ldr	r1, [r3, #0]
     558:	430a      	orrs	r2, r1
     55a:	601a      	str	r2, [r3, #0]
     55c:	4a20      	ldr	r2, [pc, #128]	@ (5e0 <main+0xd0>)
     55e:	6950      	ldr	r0, [r2, #20]
     560:	2180      	movs	r1, #128	@ 0x80
     562:	02c9      	lsls	r1, r1, #11
     564:	4308      	orrs	r0, r1
     566:	6150      	str	r0, [r2, #20]
     568:	6810      	ldr	r0, [r2, #0]
     56a:	4301      	orrs	r1, r0
     56c:	6011      	str	r1, [r2, #0]
     56e:	6950      	ldr	r0, [r2, #20]
     570:	2180      	movs	r1, #128	@ 0x80
     572:	0309      	lsls	r1, r1, #12
     574:	4308      	orrs	r0, r1
     576:	6150      	str	r0, [r2, #20]
     578:	6810      	ldr	r0, [r2, #0]
     57a:	4301      	orrs	r1, r0
     57c:	6011      	str	r1, [r2, #0]
     57e:	6959      	ldr	r1, [r3, #20]
     580:	2280      	movs	r2, #128	@ 0x80
     582:	0152      	lsls	r2, r2, #5
     584:	4311      	orrs	r1, r2
     586:	6159      	str	r1, [r3, #20]
     588:	6819      	ldr	r1, [r3, #0]
     58a:	430a      	orrs	r2, r1
     58c:	601a      	str	r2, [r3, #0]
     58e:	9401      	str	r4, [sp, #4]
     590:	21fa      	movs	r1, #250	@ 0xfa
     592:	0089      	lsls	r1, r1, #2
     594:	a801      	add	r0, sp, #4
     596:	f7ff ff3b 	bl	410 <timer_expired>
     59a:	2800      	cmp	r0, #0
     59c:	d0f8      	beq.n	590 <main+0x80>
     59e:	4b0f      	ldr	r3, [pc, #60]	@ (5dc <main+0xcc>)
     5a0:	681a      	ldr	r2, [r3, #0]
     5a2:	43d2      	mvns	r2, r2
     5a4:	601a      	str	r2, [r3, #0]
     5a6:	6819      	ldr	r1, [r3, #0]
     5a8:	2380      	movs	r3, #128	@ 0x80
     5aa:	015b      	lsls	r3, r3, #5
     5ac:	4019      	ands	r1, r3
     5ae:	4b0d      	ldr	r3, [pc, #52]	@ (5e4 <main+0xd4>)
     5b0:	681a      	ldr	r2, [r3, #0]
     5b2:	1e4b      	subs	r3, r1, #1
     5b4:	4199      	sbcs	r1, r3
     5b6:	480c      	ldr	r0, [pc, #48]	@ (5e8 <main+0xd8>)
     5b8:	f000 f882 	bl	6c0 <iprintf>
     5bc:	e7e8      	b.n	590 <main+0x80>
     5be:	46c0      	nop			@ (mov r8, r8)
     5c0:	e000e010 	and	lr, r0, r0, lsl r0
     5c4:	000051e9 	andeq	r5, r0, r9, ror #3
     5c8:	4006b000 	andmi	fp, r6, r0
     5cc:	40047000 	andmi	r7, r4, r0
     5d0:	00001038 	andeq	r1, r0, r8, lsr r0
     5d4:	4004b000 	andmi	fp, r4, r0
     5d8:	4004a000 	andmi	sl, r4, r0
     5dc:	400ff080 	andmi	pc, pc, r0, lsl #1
     5e0:	400ff040 	andmi	pc, pc, r0, asr #32
     5e4:	1ffff1ac 	svcne	0x00fff1ac
     5e8:	00001680 	andeq	r1, r0, r0, lsl #13

000005ec <__init_hardware>:
     5ec:	4a02      	ldr	r2, [pc, #8]	@ (5f8 <__init_hardware+0xc>)
     5ee:	2388      	movs	r3, #136	@ 0x88
     5f0:	015b      	lsls	r3, r3, #5
     5f2:	2100      	movs	r1, #0
     5f4:	50d1      	str	r1, [r2, r3]
     5f6:	4770      	bx	lr
     5f8:	40047000 	andmi	r7, r4, r0

000005fc <_reset>:
     5fc:	f7ff fff6 	bl	5ec <__init_hardware>
     600:	4b08      	ldr	r3, [pc, #32]	@ (624 <_reset+0x28>)
     602:	e001      	b.n	608 <_reset+0xc>
     604:	2200      	movs	r2, #0
     606:	c304      	stmia	r3!, {r2}
     608:	4a07      	ldr	r2, [pc, #28]	@ (628 <_reset+0x2c>)
     60a:	4293      	cmp	r3, r2
     60c:	d3fa      	bcc.n	604 <_reset+0x8>
     60e:	4907      	ldr	r1, [pc, #28]	@ (62c <_reset+0x30>)
     610:	4b07      	ldr	r3, [pc, #28]	@ (630 <_reset+0x34>)
     612:	e001      	b.n	618 <_reset+0x1c>
     614:	c904      	ldmia	r1!, {r2}
     616:	c304      	stmia	r3!, {r2}
     618:	4a06      	ldr	r2, [pc, #24]	@ (634 <_reset+0x38>)
     61a:	4293      	cmp	r3, r2
     61c:	d3fa      	bcc.n	614 <_reset+0x18>
     61e:	f7ff ff77 	bl	510 <main>
     622:	e7fe      	b.n	622 <_reset+0x26>
     624:	1ffff05c 	svcne	0x00fff05c
     628:	1ffff1b0 	svcne	0x00fff1b0
     62c:	000016c8 	andeq	r1, r0, r8, asr #13
     630:	1ffff000 	svcne	0x00fff000
     634:	1ffff05c 	svcne	0x00fff05c

00000638 <_sbrk>:
     638:	0003      	movs	r3, r0
     63a:	4a06      	ldr	r2, [pc, #24]	@ (654 <_sbrk+0x1c>)
     63c:	6812      	ldr	r2, [r2, #0]
     63e:	2a00      	cmp	r2, #0
     640:	d004      	beq.n	64c <_sbrk+0x14>
     642:	4a04      	ldr	r2, [pc, #16]	@ (654 <_sbrk+0x1c>)
     644:	6810      	ldr	r0, [r2, #0]
     646:	18c3      	adds	r3, r0, r3
     648:	6013      	str	r3, [r2, #0]
     64a:	4770      	bx	lr
     64c:	4a01      	ldr	r2, [pc, #4]	@ (654 <_sbrk+0x1c>)
     64e:	4902      	ldr	r1, [pc, #8]	@ (658 <_sbrk+0x20>)
     650:	6011      	str	r1, [r2, #0]
     652:	e7f6      	b.n	642 <_sbrk+0xa>
     654:	1ffff1a8 	svcne	0x00fff1a8
     658:	1ffff1b0 	svcne	0x00fff1b0

0000065c <_fstat>:
     65c:	2800      	cmp	r0, #0
     65e:	db04      	blt.n	66a <_fstat+0xe>
     660:	2380      	movs	r3, #128	@ 0x80
     662:	019b      	lsls	r3, r3, #6
     664:	604b      	str	r3, [r1, #4]
     666:	2000      	movs	r0, #0
     668:	4770      	bx	lr
     66a:	2001      	movs	r0, #1
     66c:	4240      	negs	r0, r0
     66e:	e7fb      	b.n	668 <_fstat+0xc>

00000670 <_close>:
     670:	2001      	movs	r0, #1
     672:	4240      	negs	r0, r0
     674:	4770      	bx	lr

00000676 <_isatty>:
     676:	2001      	movs	r0, #1
     678:	4770      	bx	lr

0000067a <_lseek>:
     67a:	2000      	movs	r0, #0
     67c:	4770      	bx	lr
	...

00000680 <_write>:
     680:	b530      	push	{r4, r5, lr}
     682:	0015      	movs	r5, r2
     684:	2801      	cmp	r0, #1
     686:	d111      	bne.n	6ac <_write+0x2c>
     688:	0013      	movs	r3, r2
     68a:	e009      	b.n	6a0 <_write+0x20>
     68c:	46c0      	nop			@ (mov r8, r8)
     68e:	4b09      	ldr	r3, [pc, #36]	@ (6b4 <_write+0x34>)
     690:	791b      	ldrb	r3, [r3, #4]
     692:	b25b      	sxtb	r3, r3
     694:	2b00      	cmp	r3, #0
     696:	daf9      	bge.n	68c <_write+0xc>
     698:	4b06      	ldr	r3, [pc, #24]	@ (6b4 <_write+0x34>)
     69a:	71d9      	strb	r1, [r3, #7]
     69c:	0013      	movs	r3, r2
     69e:	0021      	movs	r1, r4
     6a0:	1e5a      	subs	r2, r3, #1
     6a2:	2b00      	cmp	r3, #0
     6a4:	d004      	beq.n	6b0 <_write+0x30>
     6a6:	1c4c      	adds	r4, r1, #1
     6a8:	7809      	ldrb	r1, [r1, #0]
     6aa:	e7f0      	b.n	68e <_write+0xe>
     6ac:	2501      	movs	r5, #1
     6ae:	426d      	negs	r5, r5
     6b0:	0028      	movs	r0, r5
     6b2:	bd30      	pop	{r4, r5, pc}
     6b4:	4006b000 	andmi	fp, r6, r0

000006b8 <_read>:
     6b8:	2001      	movs	r0, #1
     6ba:	4240      	negs	r0, r0
     6bc:	4770      	bx	lr
	...

000006c0 <iprintf>:
     6c0:	b40f      	push	{r0, r1, r2, r3}
     6c2:	b507      	push	{r0, r1, r2, lr}
     6c4:	4905      	ldr	r1, [pc, #20]	@ (6dc <iprintf+0x1c>)
     6c6:	ab04      	add	r3, sp, #16
     6c8:	6808      	ldr	r0, [r1, #0]
     6ca:	cb04      	ldmia	r3!, {r2}
     6cc:	6881      	ldr	r1, [r0, #8]
     6ce:	9301      	str	r3, [sp, #4]
     6d0:	f000 f82e 	bl	730 <_vfiprintf_r>
     6d4:	b003      	add	sp, #12
     6d6:	bc08      	pop	{r3}
     6d8:	b004      	add	sp, #16
     6da:	4718      	bx	r3
     6dc:	1ffff058 	svcne	0x00fff058

000006e0 <__sfputc_r>:
     6e0:	6893      	ldr	r3, [r2, #8]
     6e2:	b510      	push	{r4, lr}
     6e4:	3b01      	subs	r3, #1
     6e6:	6093      	str	r3, [r2, #8]
     6e8:	2b00      	cmp	r3, #0
     6ea:	da04      	bge.n	6f6 <__sfputc_r+0x16>
     6ec:	6994      	ldr	r4, [r2, #24]
     6ee:	42a3      	cmp	r3, r4
     6f0:	db07      	blt.n	702 <__sfputc_r+0x22>
     6f2:	290a      	cmp	r1, #10
     6f4:	d005      	beq.n	702 <__sfputc_r+0x22>
     6f6:	6813      	ldr	r3, [r2, #0]
     6f8:	1c58      	adds	r0, r3, #1
     6fa:	6010      	str	r0, [r2, #0]
     6fc:	7019      	strb	r1, [r3, #0]
     6fe:	0008      	movs	r0, r1
     700:	bd10      	pop	{r4, pc}
     702:	f000 f931 	bl	968 <__swbuf_r>
     706:	0001      	movs	r1, r0
     708:	e7f9      	b.n	6fe <__sfputc_r+0x1e>

0000070a <__sfputs_r>:
     70a:	b5f8      	push	{r3, r4, r5, r6, r7, lr}
     70c:	0006      	movs	r6, r0
     70e:	000f      	movs	r7, r1
     710:	0014      	movs	r4, r2
     712:	18d5      	adds	r5, r2, r3
     714:	42ac      	cmp	r4, r5
     716:	d101      	bne.n	71c <__sfputs_r+0x12>
     718:	2000      	movs	r0, #0
     71a:	e007      	b.n	72c <__sfputs_r+0x22>
     71c:	7821      	ldrb	r1, [r4, #0]
     71e:	003a      	movs	r2, r7
     720:	0030      	movs	r0, r6
     722:	f7ff ffdd 	bl	6e0 <__sfputc_r>
     726:	3401      	adds	r4, #1
     728:	1c43      	adds	r3, r0, #1
     72a:	d1f3      	bne.n	714 <__sfputs_r+0xa>
     72c:	bdf8      	pop	{r3, r4, r5, r6, r7, pc}
	...

00000730 <_vfiprintf_r>:
     730:	b5f0      	push	{r4, r5, r6, r7, lr}
     732:	b0a1      	sub	sp, #132	@ 0x84
     734:	000f      	movs	r7, r1
     736:	0015      	movs	r5, r2
     738:	001e      	movs	r6, r3
     73a:	9003      	str	r0, [sp, #12]
     73c:	2800      	cmp	r0, #0
     73e:	d004      	beq.n	74a <_vfiprintf_r+0x1a>
     740:	6a03      	ldr	r3, [r0, #32]
     742:	2b00      	cmp	r3, #0
     744:	d101      	bne.n	74a <_vfiprintf_r+0x1a>
     746:	f000 fc8d 	bl	1064 <__sinit>
     74a:	6e7b      	ldr	r3, [r7, #100]	@ 0x64
     74c:	07db      	lsls	r3, r3, #31
     74e:	d405      	bmi.n	75c <_vfiprintf_r+0x2c>
     750:	89bb      	ldrh	r3, [r7, #12]
     752:	059b      	lsls	r3, r3, #22
     754:	d402      	bmi.n	75c <_vfiprintf_r+0x2c>
     756:	6db8      	ldr	r0, [r7, #88]	@ 0x58
     758:	f000 fd6b 	bl	1232 <__retarget_lock_acquire_recursive>
     75c:	89bb      	ldrh	r3, [r7, #12]
     75e:	071b      	lsls	r3, r3, #28
     760:	d502      	bpl.n	768 <_vfiprintf_r+0x38>
     762:	693b      	ldr	r3, [r7, #16]
     764:	2b00      	cmp	r3, #0
     766:	d113      	bne.n	790 <_vfiprintf_r+0x60>
     768:	0039      	movs	r1, r7
     76a:	9803      	ldr	r0, [sp, #12]
     76c:	f000 f93e 	bl	9ec <__swsetup_r>
     770:	2800      	cmp	r0, #0
     772:	d00d      	beq.n	790 <_vfiprintf_r+0x60>
     774:	6e7b      	ldr	r3, [r7, #100]	@ 0x64
     776:	07db      	lsls	r3, r3, #31
     778:	d503      	bpl.n	782 <_vfiprintf_r+0x52>
     77a:	2001      	movs	r0, #1
     77c:	4240      	negs	r0, r0
     77e:	b021      	add	sp, #132	@ 0x84
     780:	bdf0      	pop	{r4, r5, r6, r7, pc}
     782:	89bb      	ldrh	r3, [r7, #12]
     784:	059b      	lsls	r3, r3, #22
     786:	d4f8      	bmi.n	77a <_vfiprintf_r+0x4a>
     788:	6db8      	ldr	r0, [r7, #88]	@ 0x58
     78a:	f000 fd53 	bl	1234 <__retarget_lock_release_recursive>
     78e:	e7f4      	b.n	77a <_vfiprintf_r+0x4a>
     790:	2300      	movs	r3, #0
     792:	ac08      	add	r4, sp, #32
     794:	6163      	str	r3, [r4, #20]
     796:	3320      	adds	r3, #32
     798:	7663      	strb	r3, [r4, #25]
     79a:	3310      	adds	r3, #16
     79c:	76a3      	strb	r3, [r4, #26]
     79e:	9607      	str	r6, [sp, #28]
     7a0:	002e      	movs	r6, r5
     7a2:	7833      	ldrb	r3, [r6, #0]
     7a4:	2b00      	cmp	r3, #0
     7a6:	d001      	beq.n	7ac <_vfiprintf_r+0x7c>
     7a8:	2b25      	cmp	r3, #37	@ 0x25
     7aa:	d148      	bne.n	83e <_vfiprintf_r+0x10e>
     7ac:	1b73      	subs	r3, r6, r5
     7ae:	9305      	str	r3, [sp, #20]
     7b0:	42ae      	cmp	r6, r5
     7b2:	d00b      	beq.n	7cc <_vfiprintf_r+0x9c>
     7b4:	002a      	movs	r2, r5
     7b6:	0039      	movs	r1, r7
     7b8:	9803      	ldr	r0, [sp, #12]
     7ba:	f7ff ffa6 	bl	70a <__sfputs_r>
     7be:	3001      	adds	r0, #1
     7c0:	d100      	bne.n	7c4 <_vfiprintf_r+0x94>
     7c2:	e0ae      	b.n	922 <_vfiprintf_r+0x1f2>
     7c4:	6963      	ldr	r3, [r4, #20]
     7c6:	9a05      	ldr	r2, [sp, #20]
     7c8:	189b      	adds	r3, r3, r2
     7ca:	6163      	str	r3, [r4, #20]
     7cc:	7833      	ldrb	r3, [r6, #0]
     7ce:	2b00      	cmp	r3, #0
     7d0:	d100      	bne.n	7d4 <_vfiprintf_r+0xa4>
     7d2:	e0a6      	b.n	922 <_vfiprintf_r+0x1f2>
     7d4:	2201      	movs	r2, #1
     7d6:	2300      	movs	r3, #0
     7d8:	4252      	negs	r2, r2
     7da:	6062      	str	r2, [r4, #4]
     7dc:	a904      	add	r1, sp, #16
     7de:	3254      	adds	r2, #84	@ 0x54
     7e0:	1852      	adds	r2, r2, r1
     7e2:	1c75      	adds	r5, r6, #1
     7e4:	6023      	str	r3, [r4, #0]
     7e6:	60e3      	str	r3, [r4, #12]
     7e8:	60a3      	str	r3, [r4, #8]
     7ea:	7013      	strb	r3, [r2, #0]
     7ec:	65a3      	str	r3, [r4, #88]	@ 0x58
     7ee:	4b59      	ldr	r3, [pc, #356]	@ (954 <_vfiprintf_r+0x224>)
     7f0:	2205      	movs	r2, #5
     7f2:	0018      	movs	r0, r3
     7f4:	7829      	ldrb	r1, [r5, #0]
     7f6:	9305      	str	r3, [sp, #20]
     7f8:	f000 fb99 	bl	f2e <memchr>
     7fc:	1c6e      	adds	r6, r5, #1
     7fe:	2800      	cmp	r0, #0
     800:	d11f      	bne.n	842 <_vfiprintf_r+0x112>
     802:	6822      	ldr	r2, [r4, #0]
     804:	06d3      	lsls	r3, r2, #27
     806:	d504      	bpl.n	812 <_vfiprintf_r+0xe2>
     808:	2353      	movs	r3, #83	@ 0x53
     80a:	a904      	add	r1, sp, #16
     80c:	185b      	adds	r3, r3, r1
     80e:	2120      	movs	r1, #32
     810:	7019      	strb	r1, [r3, #0]
     812:	0713      	lsls	r3, r2, #28
     814:	d504      	bpl.n	820 <_vfiprintf_r+0xf0>
     816:	2353      	movs	r3, #83	@ 0x53
     818:	a904      	add	r1, sp, #16
     81a:	185b      	adds	r3, r3, r1
     81c:	212b      	movs	r1, #43	@ 0x2b
     81e:	7019      	strb	r1, [r3, #0]
     820:	782b      	ldrb	r3, [r5, #0]
     822:	2b2a      	cmp	r3, #42	@ 0x2a
     824:	d016      	beq.n	854 <_vfiprintf_r+0x124>
     826:	002e      	movs	r6, r5
     828:	2100      	movs	r1, #0
     82a:	200a      	movs	r0, #10
     82c:	68e3      	ldr	r3, [r4, #12]
     82e:	7832      	ldrb	r2, [r6, #0]
     830:	1c75      	adds	r5, r6, #1
     832:	3a30      	subs	r2, #48	@ 0x30
     834:	2a09      	cmp	r2, #9
     836:	d950      	bls.n	8da <_vfiprintf_r+0x1aa>
     838:	2900      	cmp	r1, #0
     83a:	d111      	bne.n	860 <_vfiprintf_r+0x130>
     83c:	e017      	b.n	86e <_vfiprintf_r+0x13e>
     83e:	3601      	adds	r6, #1
     840:	e7af      	b.n	7a2 <_vfiprintf_r+0x72>
     842:	9b05      	ldr	r3, [sp, #20]
     844:	6822      	ldr	r2, [r4, #0]
     846:	1ac0      	subs	r0, r0, r3
     848:	2301      	movs	r3, #1
     84a:	4083      	lsls	r3, r0
     84c:	4313      	orrs	r3, r2
     84e:	0035      	movs	r5, r6
     850:	6023      	str	r3, [r4, #0]
     852:	e7cc      	b.n	7ee <_vfiprintf_r+0xbe>
     854:	9b07      	ldr	r3, [sp, #28]
     856:	1d19      	adds	r1, r3, #4
     858:	681b      	ldr	r3, [r3, #0]
     85a:	9107      	str	r1, [sp, #28]
     85c:	2b00      	cmp	r3, #0
     85e:	db01      	blt.n	864 <_vfiprintf_r+0x134>
     860:	930b      	str	r3, [sp, #44]	@ 0x2c
     862:	e004      	b.n	86e <_vfiprintf_r+0x13e>
     864:	425b      	negs	r3, r3
     866:	60e3      	str	r3, [r4, #12]
     868:	2302      	movs	r3, #2
     86a:	4313      	orrs	r3, r2
     86c:	6023      	str	r3, [r4, #0]
     86e:	7833      	ldrb	r3, [r6, #0]
     870:	2b2e      	cmp	r3, #46	@ 0x2e
     872:	d10c      	bne.n	88e <_vfiprintf_r+0x15e>
     874:	7873      	ldrb	r3, [r6, #1]
     876:	2b2a      	cmp	r3, #42	@ 0x2a
     878:	d134      	bne.n	8e4 <_vfiprintf_r+0x1b4>
     87a:	9b07      	ldr	r3, [sp, #28]
     87c:	3602      	adds	r6, #2
     87e:	1d1a      	adds	r2, r3, #4
     880:	681b      	ldr	r3, [r3, #0]
     882:	9207      	str	r2, [sp, #28]
     884:	2b00      	cmp	r3, #0
     886:	da01      	bge.n	88c <_vfiprintf_r+0x15c>
     888:	2301      	movs	r3, #1
     88a:	425b      	negs	r3, r3
     88c:	9309      	str	r3, [sp, #36]	@ 0x24
     88e:	4d32      	ldr	r5, [pc, #200]	@ (958 <_vfiprintf_r+0x228>)
     890:	2203      	movs	r2, #3
     892:	0028      	movs	r0, r5
     894:	7831      	ldrb	r1, [r6, #0]
     896:	f000 fb4a 	bl	f2e <memchr>
     89a:	2800      	cmp	r0, #0
     89c:	d006      	beq.n	8ac <_vfiprintf_r+0x17c>
     89e:	2340      	movs	r3, #64	@ 0x40
     8a0:	1b40      	subs	r0, r0, r5
     8a2:	4083      	lsls	r3, r0
     8a4:	6822      	ldr	r2, [r4, #0]
     8a6:	3601      	adds	r6, #1
     8a8:	4313      	orrs	r3, r2
     8aa:	6023      	str	r3, [r4, #0]
     8ac:	7831      	ldrb	r1, [r6, #0]
     8ae:	2206      	movs	r2, #6
     8b0:	482a      	ldr	r0, [pc, #168]	@ (95c <_vfiprintf_r+0x22c>)
     8b2:	1c75      	adds	r5, r6, #1
     8b4:	7621      	strb	r1, [r4, #24]
     8b6:	f000 fb3a 	bl	f2e <memchr>
     8ba:	2800      	cmp	r0, #0
     8bc:	d040      	beq.n	940 <_vfiprintf_r+0x210>
     8be:	4b28      	ldr	r3, [pc, #160]	@ (960 <_vfiprintf_r+0x230>)
     8c0:	2b00      	cmp	r3, #0
     8c2:	d122      	bne.n	90a <_vfiprintf_r+0x1da>
     8c4:	2207      	movs	r2, #7
     8c6:	9b07      	ldr	r3, [sp, #28]
     8c8:	3307      	adds	r3, #7
     8ca:	4393      	bics	r3, r2
     8cc:	3308      	adds	r3, #8
     8ce:	9307      	str	r3, [sp, #28]
     8d0:	6963      	ldr	r3, [r4, #20]
     8d2:	9a04      	ldr	r2, [sp, #16]
     8d4:	189b      	adds	r3, r3, r2
     8d6:	6163      	str	r3, [r4, #20]
     8d8:	e762      	b.n	7a0 <_vfiprintf_r+0x70>
     8da:	4343      	muls	r3, r0
     8dc:	002e      	movs	r6, r5
     8de:	2101      	movs	r1, #1
     8e0:	189b      	adds	r3, r3, r2
     8e2:	e7a4      	b.n	82e <_vfiprintf_r+0xfe>
     8e4:	2300      	movs	r3, #0
     8e6:	200a      	movs	r0, #10
     8e8:	0019      	movs	r1, r3
     8ea:	3601      	adds	r6, #1
     8ec:	6063      	str	r3, [r4, #4]
     8ee:	7832      	ldrb	r2, [r6, #0]
     8f0:	1c75      	adds	r5, r6, #1
     8f2:	3a30      	subs	r2, #48	@ 0x30
     8f4:	2a09      	cmp	r2, #9
     8f6:	d903      	bls.n	900 <_vfiprintf_r+0x1d0>
     8f8:	2b00      	cmp	r3, #0
     8fa:	d0c8      	beq.n	88e <_vfiprintf_r+0x15e>
     8fc:	9109      	str	r1, [sp, #36]	@ 0x24
     8fe:	e7c6      	b.n	88e <_vfiprintf_r+0x15e>
     900:	4341      	muls	r1, r0
     902:	002e      	movs	r6, r5
     904:	2301      	movs	r3, #1
     906:	1889      	adds	r1, r1, r2
     908:	e7f1      	b.n	8ee <_vfiprintf_r+0x1be>
     90a:	aa07      	add	r2, sp, #28
     90c:	9200      	str	r2, [sp, #0]
     90e:	0021      	movs	r1, r4
     910:	003a      	movs	r2, r7
     912:	4b14      	ldr	r3, [pc, #80]	@ (964 <_vfiprintf_r+0x234>)
     914:	9803      	ldr	r0, [sp, #12]
     916:	e000      	b.n	91a <_vfiprintf_r+0x1ea>
     918:	bf00      	nop
     91a:	9004      	str	r0, [sp, #16]
     91c:	9b04      	ldr	r3, [sp, #16]
     91e:	3301      	adds	r3, #1
     920:	d1d6      	bne.n	8d0 <_vfiprintf_r+0x1a0>
     922:	6e7b      	ldr	r3, [r7, #100]	@ 0x64
     924:	07db      	lsls	r3, r3, #31
     926:	d405      	bmi.n	934 <_vfiprintf_r+0x204>
     928:	89bb      	ldrh	r3, [r7, #12]
     92a:	059b      	lsls	r3, r3, #22
     92c:	d402      	bmi.n	934 <_vfiprintf_r+0x204>
     92e:	6db8      	ldr	r0, [r7, #88]	@ 0x58
     930:	f000 fc80 	bl	1234 <__retarget_lock_release_recursive>
     934:	89bb      	ldrh	r3, [r7, #12]
     936:	065b      	lsls	r3, r3, #25
     938:	d500      	bpl.n	93c <_vfiprintf_r+0x20c>
     93a:	e71e      	b.n	77a <_vfiprintf_r+0x4a>
     93c:	980d      	ldr	r0, [sp, #52]	@ 0x34
     93e:	e71e      	b.n	77e <_vfiprintf_r+0x4e>
     940:	aa07      	add	r2, sp, #28
     942:	9200      	str	r2, [sp, #0]
     944:	0021      	movs	r1, r4
     946:	003a      	movs	r2, r7
     948:	4b06      	ldr	r3, [pc, #24]	@ (964 <_vfiprintf_r+0x234>)
     94a:	9803      	ldr	r0, [sp, #12]
     94c:	f000 f91c 	bl	b88 <_printf_i>
     950:	e7e3      	b.n	91a <_vfiprintf_r+0x1ea>
     952:	46c0      	nop			@ (mov r8, r8)
     954:	00001695 	muleq	r0, r5, r6
     958:	0000169b 	muleq	r0, fp, r6
     95c:	0000169f 	muleq	r0, pc, r6	@ <UNPREDICTABLE>
     960:	00000000 	andeq	r0, r0, r0
     964:	0000070b 	andeq	r0, r0, fp, lsl #14

00000968 <__swbuf_r>:
     968:	b5f8      	push	{r3, r4, r5, r6, r7, lr}
     96a:	0006      	movs	r6, r0
     96c:	000d      	movs	r5, r1
     96e:	0014      	movs	r4, r2
     970:	2800      	cmp	r0, #0
     972:	d004      	beq.n	97e <__swbuf_r+0x16>
     974:	6a03      	ldr	r3, [r0, #32]
     976:	2b00      	cmp	r3, #0
     978:	d101      	bne.n	97e <__swbuf_r+0x16>
     97a:	f000 fb73 	bl	1064 <__sinit>
     97e:	69a3      	ldr	r3, [r4, #24]
     980:	60a3      	str	r3, [r4, #8]
     982:	89a3      	ldrh	r3, [r4, #12]
     984:	071b      	lsls	r3, r3, #28
     986:	d502      	bpl.n	98e <__swbuf_r+0x26>
     988:	6923      	ldr	r3, [r4, #16]
     98a:	2b00      	cmp	r3, #0
     98c:	d109      	bne.n	9a2 <__swbuf_r+0x3a>
     98e:	0021      	movs	r1, r4
     990:	0030      	movs	r0, r6
     992:	f000 f82b 	bl	9ec <__swsetup_r>
     996:	2800      	cmp	r0, #0
     998:	d003      	beq.n	9a2 <__swbuf_r+0x3a>
     99a:	2501      	movs	r5, #1
     99c:	426d      	negs	r5, r5
     99e:	0028      	movs	r0, r5
     9a0:	bdf8      	pop	{r3, r4, r5, r6, r7, pc}
     9a2:	6923      	ldr	r3, [r4, #16]
     9a4:	6820      	ldr	r0, [r4, #0]
     9a6:	b2ef      	uxtb	r7, r5
     9a8:	1ac0      	subs	r0, r0, r3
     9aa:	6963      	ldr	r3, [r4, #20]
     9ac:	b2ed      	uxtb	r5, r5
     9ae:	4283      	cmp	r3, r0
     9b0:	dc05      	bgt.n	9be <__swbuf_r+0x56>
     9b2:	0021      	movs	r1, r4
     9b4:	0030      	movs	r0, r6
     9b6:	f000 fa8f 	bl	ed8 <_fflush_r>
     9ba:	2800      	cmp	r0, #0
     9bc:	d1ed      	bne.n	99a <__swbuf_r+0x32>
     9be:	68a3      	ldr	r3, [r4, #8]
     9c0:	3001      	adds	r0, #1
     9c2:	3b01      	subs	r3, #1
     9c4:	60a3      	str	r3, [r4, #8]
     9c6:	6823      	ldr	r3, [r4, #0]
     9c8:	1c5a      	adds	r2, r3, #1
     9ca:	6022      	str	r2, [r4, #0]
     9cc:	701f      	strb	r7, [r3, #0]
     9ce:	6963      	ldr	r3, [r4, #20]
     9d0:	4283      	cmp	r3, r0
     9d2:	d004      	beq.n	9de <__swbuf_r+0x76>
     9d4:	89a3      	ldrh	r3, [r4, #12]
     9d6:	07db      	lsls	r3, r3, #31
     9d8:	d5e1      	bpl.n	99e <__swbuf_r+0x36>
     9da:	2d0a      	cmp	r5, #10
     9dc:	d1df      	bne.n	99e <__swbuf_r+0x36>
     9de:	0021      	movs	r1, r4
     9e0:	0030      	movs	r0, r6
     9e2:	f000 fa79 	bl	ed8 <_fflush_r>
     9e6:	2800      	cmp	r0, #0
     9e8:	d0d9      	beq.n	99e <__swbuf_r+0x36>
     9ea:	e7d6      	b.n	99a <__swbuf_r+0x32>

000009ec <__swsetup_r>:
     9ec:	4b2d      	ldr	r3, [pc, #180]	@ (aa4 <__swsetup_r+0xb8>)
     9ee:	b570      	push	{r4, r5, r6, lr}
     9f0:	0005      	movs	r5, r0
     9f2:	6818      	ldr	r0, [r3, #0]
     9f4:	000c      	movs	r4, r1
     9f6:	2800      	cmp	r0, #0
     9f8:	d004      	beq.n	a04 <__swsetup_r+0x18>
     9fa:	6a03      	ldr	r3, [r0, #32]
     9fc:	2b00      	cmp	r3, #0
     9fe:	d101      	bne.n	a04 <__swsetup_r+0x18>
     a00:	f000 fb30 	bl	1064 <__sinit>
     a04:	230c      	movs	r3, #12
     a06:	5ee2      	ldrsh	r2, [r4, r3]
     a08:	0713      	lsls	r3, r2, #28
     a0a:	d423      	bmi.n	a54 <__swsetup_r+0x68>
     a0c:	06d3      	lsls	r3, r2, #27
     a0e:	d407      	bmi.n	a20 <__swsetup_r+0x34>
     a10:	2309      	movs	r3, #9
     a12:	602b      	str	r3, [r5, #0]
     a14:	2340      	movs	r3, #64	@ 0x40
     a16:	2001      	movs	r0, #1
     a18:	4313      	orrs	r3, r2
     a1a:	81a3      	strh	r3, [r4, #12]
     a1c:	4240      	negs	r0, r0
     a1e:	e03a      	b.n	a96 <__swsetup_r+0xaa>
     a20:	0752      	lsls	r2, r2, #29
     a22:	d513      	bpl.n	a4c <__swsetup_r+0x60>
     a24:	6b61      	ldr	r1, [r4, #52]	@ 0x34
     a26:	2900      	cmp	r1, #0
     a28:	d008      	beq.n	a3c <__swsetup_r+0x50>
     a2a:	0023      	movs	r3, r4
     a2c:	3344      	adds	r3, #68	@ 0x44
     a2e:	4299      	cmp	r1, r3
     a30:	d002      	beq.n	a38 <__swsetup_r+0x4c>
     a32:	0028      	movs	r0, r5
     a34:	f000 fbb2 	bl	119c <_free_r>
     a38:	2300      	movs	r3, #0
     a3a:	6363      	str	r3, [r4, #52]	@ 0x34
     a3c:	2224      	movs	r2, #36	@ 0x24
     a3e:	89a3      	ldrh	r3, [r4, #12]
     a40:	4393      	bics	r3, r2
     a42:	81a3      	strh	r3, [r4, #12]
     a44:	2300      	movs	r3, #0
     a46:	6063      	str	r3, [r4, #4]
     a48:	6923      	ldr	r3, [r4, #16]
     a4a:	6023      	str	r3, [r4, #0]
     a4c:	2308      	movs	r3, #8
     a4e:	89a2      	ldrh	r2, [r4, #12]
     a50:	4313      	orrs	r3, r2
     a52:	81a3      	strh	r3, [r4, #12]
     a54:	6923      	ldr	r3, [r4, #16]
     a56:	2b00      	cmp	r3, #0
     a58:	d10b      	bne.n	a72 <__swsetup_r+0x86>
     a5a:	21a0      	movs	r1, #160	@ 0xa0
     a5c:	2280      	movs	r2, #128	@ 0x80
     a5e:	89a3      	ldrh	r3, [r4, #12]
     a60:	0089      	lsls	r1, r1, #2
     a62:	0092      	lsls	r2, r2, #2
     a64:	400b      	ands	r3, r1
     a66:	4293      	cmp	r3, r2
     a68:	d003      	beq.n	a72 <__swsetup_r+0x86>
     a6a:	0021      	movs	r1, r4
     a6c:	0028      	movs	r0, r5
     a6e:	f000 fc0d 	bl	128c <__smakebuf_r>
     a72:	230c      	movs	r3, #12
     a74:	5ee2      	ldrsh	r2, [r4, r3]
     a76:	2101      	movs	r1, #1
     a78:	0013      	movs	r3, r2
     a7a:	400b      	ands	r3, r1
     a7c:	420a      	tst	r2, r1
     a7e:	d00b      	beq.n	a98 <__swsetup_r+0xac>
     a80:	2300      	movs	r3, #0
     a82:	60a3      	str	r3, [r4, #8]
     a84:	6963      	ldr	r3, [r4, #20]
     a86:	425b      	negs	r3, r3
     a88:	61a3      	str	r3, [r4, #24]
     a8a:	2000      	movs	r0, #0
     a8c:	6923      	ldr	r3, [r4, #16]
     a8e:	4283      	cmp	r3, r0
     a90:	d101      	bne.n	a96 <__swsetup_r+0xaa>
     a92:	0613      	lsls	r3, r2, #24
     a94:	d4be      	bmi.n	a14 <__swsetup_r+0x28>
     a96:	bd70      	pop	{r4, r5, r6, pc}
     a98:	0791      	lsls	r1, r2, #30
     a9a:	d400      	bmi.n	a9e <__swsetup_r+0xb2>
     a9c:	6963      	ldr	r3, [r4, #20]
     a9e:	60a3      	str	r3, [r4, #8]
     aa0:	e7f3      	b.n	a8a <__swsetup_r+0x9e>
     aa2:	46c0      	nop			@ (mov r8, r8)
     aa4:	1ffff058 	svcne	0x00fff058

00000aa8 <_printf_common>:
     aa8:	b5f7      	push	{r0, r1, r2, r4, r5, r6, r7, lr}
     aaa:	0016      	movs	r6, r2
     aac:	9301      	str	r3, [sp, #4]
     aae:	688a      	ldr	r2, [r1, #8]
     ab0:	690b      	ldr	r3, [r1, #16]
     ab2:	000c      	movs	r4, r1
     ab4:	9000      	str	r0, [sp, #0]
     ab6:	4293      	cmp	r3, r2
     ab8:	da00      	bge.n	abc <_printf_common+0x14>
     aba:	0013      	movs	r3, r2
     abc:	0022      	movs	r2, r4
     abe:	6033      	str	r3, [r6, #0]
     ac0:	3243      	adds	r2, #67	@ 0x43
     ac2:	7812      	ldrb	r2, [r2, #0]
     ac4:	2a00      	cmp	r2, #0
     ac6:	d001      	beq.n	acc <_printf_common+0x24>
     ac8:	3301      	adds	r3, #1
     aca:	6033      	str	r3, [r6, #0]
     acc:	6823      	ldr	r3, [r4, #0]
     ace:	069b      	lsls	r3, r3, #26
     ad0:	d502      	bpl.n	ad8 <_printf_common+0x30>
     ad2:	6833      	ldr	r3, [r6, #0]
     ad4:	3302      	adds	r3, #2
     ad6:	6033      	str	r3, [r6, #0]
     ad8:	6822      	ldr	r2, [r4, #0]
     ada:	2306      	movs	r3, #6
     adc:	0015      	movs	r5, r2
     ade:	401d      	ands	r5, r3
     ae0:	421a      	tst	r2, r3
     ae2:	d027      	beq.n	b34 <_printf_common+0x8c>
     ae4:	0023      	movs	r3, r4
     ae6:	3343      	adds	r3, #67	@ 0x43
     ae8:	781b      	ldrb	r3, [r3, #0]
     aea:	1e5a      	subs	r2, r3, #1
     aec:	4193      	sbcs	r3, r2
     aee:	6822      	ldr	r2, [r4, #0]
     af0:	0692      	lsls	r2, r2, #26
     af2:	d430      	bmi.n	b56 <_printf_common+0xae>
     af4:	0022      	movs	r2, r4
     af6:	9901      	ldr	r1, [sp, #4]
     af8:	9800      	ldr	r0, [sp, #0]
     afa:	9d08      	ldr	r5, [sp, #32]
     afc:	3243      	adds	r2, #67	@ 0x43
     afe:	47a8      	blx	r5
     b00:	3001      	adds	r0, #1
     b02:	d025      	beq.n	b50 <_printf_common+0xa8>
     b04:	2206      	movs	r2, #6
     b06:	6823      	ldr	r3, [r4, #0]
     b08:	2500      	movs	r5, #0
     b0a:	4013      	ands	r3, r2
     b0c:	2b04      	cmp	r3, #4
     b0e:	d105      	bne.n	b1c <_printf_common+0x74>
     b10:	6833      	ldr	r3, [r6, #0]
     b12:	68e5      	ldr	r5, [r4, #12]
     b14:	1aed      	subs	r5, r5, r3
     b16:	43eb      	mvns	r3, r5
     b18:	17db      	asrs	r3, r3, #31
     b1a:	401d      	ands	r5, r3
     b1c:	68a3      	ldr	r3, [r4, #8]
     b1e:	6922      	ldr	r2, [r4, #16]
     b20:	4293      	cmp	r3, r2
     b22:	dd01      	ble.n	b28 <_printf_common+0x80>
     b24:	1a9b      	subs	r3, r3, r2
     b26:	18ed      	adds	r5, r5, r3
     b28:	2600      	movs	r6, #0
     b2a:	42b5      	cmp	r5, r6
     b2c:	d120      	bne.n	b70 <_printf_common+0xc8>
     b2e:	2000      	movs	r0, #0
     b30:	e010      	b.n	b54 <_printf_common+0xac>
     b32:	3501      	adds	r5, #1
     b34:	68e3      	ldr	r3, [r4, #12]
     b36:	6832      	ldr	r2, [r6, #0]
     b38:	1a9b      	subs	r3, r3, r2
     b3a:	42ab      	cmp	r3, r5
     b3c:	ddd2      	ble.n	ae4 <_printf_common+0x3c>
     b3e:	0022      	movs	r2, r4
     b40:	2301      	movs	r3, #1
     b42:	9901      	ldr	r1, [sp, #4]
     b44:	9800      	ldr	r0, [sp, #0]
     b46:	9f08      	ldr	r7, [sp, #32]
     b48:	3219      	adds	r2, #25
     b4a:	47b8      	blx	r7
     b4c:	3001      	adds	r0, #1
     b4e:	d1f0      	bne.n	b32 <_printf_common+0x8a>
     b50:	2001      	movs	r0, #1
     b52:	4240      	negs	r0, r0
     b54:	bdfe      	pop	{r1, r2, r3, r4, r5, r6, r7, pc}
     b56:	2030      	movs	r0, #48	@ 0x30
     b58:	18e1      	adds	r1, r4, r3
     b5a:	3143      	adds	r1, #67	@ 0x43
     b5c:	7008      	strb	r0, [r1, #0]
     b5e:	0021      	movs	r1, r4
     b60:	1c5a      	adds	r2, r3, #1
     b62:	3145      	adds	r1, #69	@ 0x45
     b64:	7809      	ldrb	r1, [r1, #0]
     b66:	18a2      	adds	r2, r4, r2
     b68:	3243      	adds	r2, #67	@ 0x43
     b6a:	3302      	adds	r3, #2
     b6c:	7011      	strb	r1, [r2, #0]
     b6e:	e7c1      	b.n	af4 <_printf_common+0x4c>
     b70:	0022      	movs	r2, r4
     b72:	2301      	movs	r3, #1
     b74:	9901      	ldr	r1, [sp, #4]
     b76:	9800      	ldr	r0, [sp, #0]
     b78:	9f08      	ldr	r7, [sp, #32]
     b7a:	321a      	adds	r2, #26
     b7c:	47b8      	blx	r7
     b7e:	3001      	adds	r0, #1
     b80:	d0e6      	beq.n	b50 <_printf_common+0xa8>
     b82:	3601      	adds	r6, #1
     b84:	e7d1      	b.n	b2a <_printf_common+0x82>
	...

00000b88 <_printf_i>:
     b88:	b5f0      	push	{r4, r5, r6, r7, lr}
     b8a:	b08b      	sub	sp, #44	@ 0x2c
     b8c:	9206      	str	r2, [sp, #24]
     b8e:	000a      	movs	r2, r1
     b90:	3243      	adds	r2, #67	@ 0x43
     b92:	9307      	str	r3, [sp, #28]
     b94:	9005      	str	r0, [sp, #20]
     b96:	9204      	str	r2, [sp, #16]
     b98:	7e0a      	ldrb	r2, [r1, #24]
     b9a:	000c      	movs	r4, r1
     b9c:	9b10      	ldr	r3, [sp, #64]	@ 0x40
     b9e:	2a78      	cmp	r2, #120	@ 0x78
     ba0:	d809      	bhi.n	bb6 <_printf_i+0x2e>
     ba2:	2a62      	cmp	r2, #98	@ 0x62
     ba4:	d80b      	bhi.n	bbe <_printf_i+0x36>
     ba6:	2a00      	cmp	r2, #0
     ba8:	d100      	bne.n	bac <_printf_i+0x24>
     baa:	e0c8      	b.n	d3e <_printf_i+0x1b6>
     bac:	4981      	ldr	r1, [pc, #516]	@ (db4 <_printf_i+0x22c>)
     bae:	9103      	str	r1, [sp, #12]
     bb0:	2a58      	cmp	r2, #88	@ 0x58
     bb2:	d100      	bne.n	bb6 <_printf_i+0x2e>
     bb4:	e09c      	b.n	cf0 <_printf_i+0x168>
     bb6:	0025      	movs	r5, r4
     bb8:	3542      	adds	r5, #66	@ 0x42
     bba:	702a      	strb	r2, [r5, #0]
     bbc:	e022      	b.n	c04 <_printf_i+0x7c>
     bbe:	0010      	movs	r0, r2
     bc0:	3863      	subs	r0, #99	@ 0x63
     bc2:	2815      	cmp	r0, #21
     bc4:	d8f7      	bhi.n	bb6 <_printf_i+0x2e>
     bc6:	f000 fcc5 	bl	1554 <__gnu_thumb1_case_shi>
     bca:	001f0016 	andseq	r0, pc, r6, lsl r0	@ <UNPREDICTABLE>
     bce:	fff6fff6 			@ <UNDEFINED> instruction: 0xfff6fff6
     bd2:	fff6fff6 			@ <UNDEFINED> instruction: 0xfff6fff6
     bd6:	fff6001f 			@ <UNDEFINED> instruction: 0xfff6001f
     bda:	fff6fff6 			@ <UNDEFINED> instruction: 0xfff6fff6
     bde:	00adfff6 	strdeq	pc, [sp], r6	@ <UNPREDICTABLE>
     be2:	008c004f 	addeq	r0, ip, pc, asr #32
     be6:	fff6fff6 			@ <UNDEFINED> instruction: 0xfff6fff6
     bea:	fff600be 			@ <UNDEFINED> instruction: 0xfff600be
     bee:	fff6004f 			@ <UNDEFINED> instruction: 0xfff6004f
     bf2:	0090fff6 			@ <UNDEFINED> instruction: 0x0090fff6
     bf6:	0025      	movs	r5, r4
     bf8:	681a      	ldr	r2, [r3, #0]
     bfa:	3542      	adds	r5, #66	@ 0x42
     bfc:	1d11      	adds	r1, r2, #4
     bfe:	6019      	str	r1, [r3, #0]
     c00:	6813      	ldr	r3, [r2, #0]
     c02:	702b      	strb	r3, [r5, #0]
     c04:	2301      	movs	r3, #1
     c06:	e0ac      	b.n	d62 <_printf_i+0x1da>
     c08:	6818      	ldr	r0, [r3, #0]
     c0a:	6809      	ldr	r1, [r1, #0]
     c0c:	1d02      	adds	r2, r0, #4
     c0e:	060d      	lsls	r5, r1, #24
     c10:	d51f      	bpl.n	c52 <_printf_i+0xca>
     c12:	6806      	ldr	r6, [r0, #0]
     c14:	601a      	str	r2, [r3, #0]
     c16:	4a67      	ldr	r2, [pc, #412]	@ (db4 <_printf_i+0x22c>)
     c18:	270a      	movs	r7, #10
     c1a:	6861      	ldr	r1, [r4, #4]
     c1c:	9203      	str	r2, [sp, #12]
     c1e:	2e00      	cmp	r6, #0
     c20:	da35      	bge.n	c8e <_printf_i+0x106>
     c22:	0023      	movs	r3, r4
     c24:	202d      	movs	r0, #45	@ 0x2d
     c26:	3343      	adds	r3, #67	@ 0x43
     c28:	7018      	strb	r0, [r3, #0]
     c2a:	60a1      	str	r1, [r4, #8]
     c2c:	2900      	cmp	r1, #0
     c2e:	da16      	bge.n	c5e <_printf_i+0xd6>
     c30:	270a      	movs	r7, #10
     c32:	4276      	negs	r6, r6
     c34:	9203      	str	r2, [sp, #12]
     c36:	9d04      	ldr	r5, [sp, #16]
     c38:	0030      	movs	r0, r6
     c3a:	0039      	movs	r1, r7
     c3c:	f000 fd1a 	bl	1674 <__aeabi_uidivmod>
     c40:	9b03      	ldr	r3, [sp, #12]
     c42:	3d01      	subs	r5, #1
     c44:	5c5b      	ldrb	r3, [r3, r1]
     c46:	702b      	strb	r3, [r5, #0]
     c48:	0033      	movs	r3, r6
     c4a:	0006      	movs	r6, r0
     c4c:	429f      	cmp	r7, r3
     c4e:	d9f3      	bls.n	c38 <_printf_i+0xb0>
     c50:	e02a      	b.n	ca8 <_printf_i+0x120>
     c52:	6806      	ldr	r6, [r0, #0]
     c54:	601a      	str	r2, [r3, #0]
     c56:	0649      	lsls	r1, r1, #25
     c58:	d5dd      	bpl.n	c16 <_printf_i+0x8e>
     c5a:	b236      	sxth	r6, r6
     c5c:	e7db      	b.n	c16 <_printf_i+0x8e>
     c5e:	2104      	movs	r1, #4
     c60:	6823      	ldr	r3, [r4, #0]
     c62:	438b      	bics	r3, r1
     c64:	6023      	str	r3, [r4, #0]
     c66:	e7e3      	b.n	c30 <_printf_i+0xa8>
     c68:	6808      	ldr	r0, [r1, #0]
     c6a:	6819      	ldr	r1, [r3, #0]
     c6c:	c940      	ldmia	r1!, {r6}
     c6e:	0605      	lsls	r5, r0, #24
     c70:	d402      	bmi.n	c78 <_printf_i+0xf0>
     c72:	0640      	lsls	r0, r0, #25
     c74:	d500      	bpl.n	c78 <_printf_i+0xf0>
     c76:	b2b6      	uxth	r6, r6
     c78:	6019      	str	r1, [r3, #0]
     c7a:	4b4e      	ldr	r3, [pc, #312]	@ (db4 <_printf_i+0x22c>)
     c7c:	270a      	movs	r7, #10
     c7e:	9303      	str	r3, [sp, #12]
     c80:	2a6f      	cmp	r2, #111	@ 0x6f
     c82:	d100      	bne.n	c86 <_printf_i+0xfe>
     c84:	3f02      	subs	r7, #2
     c86:	0023      	movs	r3, r4
     c88:	2200      	movs	r2, #0
     c8a:	3343      	adds	r3, #67	@ 0x43
     c8c:	701a      	strb	r2, [r3, #0]
     c8e:	6863      	ldr	r3, [r4, #4]
     c90:	60a3      	str	r3, [r4, #8]
     c92:	2b00      	cmp	r3, #0
     c94:	dbcf      	blt.n	c36 <_printf_i+0xae>
     c96:	2104      	movs	r1, #4
     c98:	6822      	ldr	r2, [r4, #0]
     c9a:	438a      	bics	r2, r1
     c9c:	6022      	str	r2, [r4, #0]
     c9e:	2e00      	cmp	r6, #0
     ca0:	d1c9      	bne.n	c36 <_printf_i+0xae>
     ca2:	9d04      	ldr	r5, [sp, #16]
     ca4:	2b00      	cmp	r3, #0
     ca6:	d1c6      	bne.n	c36 <_printf_i+0xae>
     ca8:	2f08      	cmp	r7, #8
     caa:	d109      	bne.n	cc0 <_printf_i+0x138>
     cac:	6823      	ldr	r3, [r4, #0]
     cae:	07db      	lsls	r3, r3, #31
     cb0:	d506      	bpl.n	cc0 <_printf_i+0x138>
     cb2:	6862      	ldr	r2, [r4, #4]
     cb4:	6923      	ldr	r3, [r4, #16]
     cb6:	429a      	cmp	r2, r3
     cb8:	dc02      	bgt.n	cc0 <_printf_i+0x138>
     cba:	2330      	movs	r3, #48	@ 0x30
     cbc:	3d01      	subs	r5, #1
     cbe:	702b      	strb	r3, [r5, #0]
     cc0:	9b04      	ldr	r3, [sp, #16]
     cc2:	1b5b      	subs	r3, r3, r5
     cc4:	6123      	str	r3, [r4, #16]
     cc6:	9b07      	ldr	r3, [sp, #28]
     cc8:	0021      	movs	r1, r4
     cca:	9300      	str	r3, [sp, #0]
     ccc:	9805      	ldr	r0, [sp, #20]
     cce:	9b06      	ldr	r3, [sp, #24]
     cd0:	aa09      	add	r2, sp, #36	@ 0x24
     cd2:	f7ff fee9 	bl	aa8 <_printf_common>
     cd6:	3001      	adds	r0, #1
     cd8:	d148      	bne.n	d6c <_printf_i+0x1e4>
     cda:	2001      	movs	r0, #1
     cdc:	4240      	negs	r0, r0
     cde:	b00b      	add	sp, #44	@ 0x2c
     ce0:	bdf0      	pop	{r4, r5, r6, r7, pc}
     ce2:	2220      	movs	r2, #32
     ce4:	6809      	ldr	r1, [r1, #0]
     ce6:	430a      	orrs	r2, r1
     ce8:	6022      	str	r2, [r4, #0]
     cea:	2278      	movs	r2, #120	@ 0x78
     cec:	4932      	ldr	r1, [pc, #200]	@ (db8 <_printf_i+0x230>)
     cee:	9103      	str	r1, [sp, #12]
     cf0:	0021      	movs	r1, r4
     cf2:	3145      	adds	r1, #69	@ 0x45
     cf4:	700a      	strb	r2, [r1, #0]
     cf6:	6819      	ldr	r1, [r3, #0]
     cf8:	6822      	ldr	r2, [r4, #0]
     cfa:	c940      	ldmia	r1!, {r6}
     cfc:	0610      	lsls	r0, r2, #24
     cfe:	d402      	bmi.n	d06 <_printf_i+0x17e>
     d00:	0650      	lsls	r0, r2, #25
     d02:	d500      	bpl.n	d06 <_printf_i+0x17e>
     d04:	b2b6      	uxth	r6, r6
     d06:	6019      	str	r1, [r3, #0]
     d08:	07d3      	lsls	r3, r2, #31
     d0a:	d502      	bpl.n	d12 <_printf_i+0x18a>
     d0c:	2320      	movs	r3, #32
     d0e:	4313      	orrs	r3, r2
     d10:	6023      	str	r3, [r4, #0]
     d12:	2e00      	cmp	r6, #0
     d14:	d001      	beq.n	d1a <_printf_i+0x192>
     d16:	2710      	movs	r7, #16
     d18:	e7b5      	b.n	c86 <_printf_i+0xfe>
     d1a:	2220      	movs	r2, #32
     d1c:	6823      	ldr	r3, [r4, #0]
     d1e:	4393      	bics	r3, r2
     d20:	6023      	str	r3, [r4, #0]
     d22:	e7f8      	b.n	d16 <_printf_i+0x18e>
     d24:	681a      	ldr	r2, [r3, #0]
     d26:	680d      	ldr	r5, [r1, #0]
     d28:	1d10      	adds	r0, r2, #4
     d2a:	6949      	ldr	r1, [r1, #20]
     d2c:	6018      	str	r0, [r3, #0]
     d2e:	6813      	ldr	r3, [r2, #0]
     d30:	062e      	lsls	r6, r5, #24
     d32:	d501      	bpl.n	d38 <_printf_i+0x1b0>
     d34:	6019      	str	r1, [r3, #0]
     d36:	e002      	b.n	d3e <_printf_i+0x1b6>
     d38:	066d      	lsls	r5, r5, #25
     d3a:	d5fb      	bpl.n	d34 <_printf_i+0x1ac>
     d3c:	8019      	strh	r1, [r3, #0]
     d3e:	2300      	movs	r3, #0
     d40:	9d04      	ldr	r5, [sp, #16]
     d42:	6123      	str	r3, [r4, #16]
     d44:	e7bf      	b.n	cc6 <_printf_i+0x13e>
     d46:	681a      	ldr	r2, [r3, #0]
     d48:	1d11      	adds	r1, r2, #4
     d4a:	6019      	str	r1, [r3, #0]
     d4c:	6815      	ldr	r5, [r2, #0]
     d4e:	2100      	movs	r1, #0
     d50:	0028      	movs	r0, r5
     d52:	6862      	ldr	r2, [r4, #4]
     d54:	f000 f8eb 	bl	f2e <memchr>
     d58:	2800      	cmp	r0, #0
     d5a:	d001      	beq.n	d60 <_printf_i+0x1d8>
     d5c:	1b40      	subs	r0, r0, r5
     d5e:	6060      	str	r0, [r4, #4]
     d60:	6863      	ldr	r3, [r4, #4]
     d62:	6123      	str	r3, [r4, #16]
     d64:	2300      	movs	r3, #0
     d66:	9a04      	ldr	r2, [sp, #16]
     d68:	7013      	strb	r3, [r2, #0]
     d6a:	e7ac      	b.n	cc6 <_printf_i+0x13e>
     d6c:	002a      	movs	r2, r5
     d6e:	6923      	ldr	r3, [r4, #16]
     d70:	9906      	ldr	r1, [sp, #24]
     d72:	9805      	ldr	r0, [sp, #20]
     d74:	9d07      	ldr	r5, [sp, #28]
     d76:	47a8      	blx	r5
     d78:	3001      	adds	r0, #1
     d7a:	d0ae      	beq.n	cda <_printf_i+0x152>
     d7c:	6823      	ldr	r3, [r4, #0]
     d7e:	079b      	lsls	r3, r3, #30
     d80:	d415      	bmi.n	dae <_printf_i+0x226>
     d82:	9b09      	ldr	r3, [sp, #36]	@ 0x24
     d84:	68e0      	ldr	r0, [r4, #12]
     d86:	4298      	cmp	r0, r3
     d88:	daa9      	bge.n	cde <_printf_i+0x156>
     d8a:	0018      	movs	r0, r3
     d8c:	e7a7      	b.n	cde <_printf_i+0x156>
     d8e:	0022      	movs	r2, r4
     d90:	2301      	movs	r3, #1
     d92:	9906      	ldr	r1, [sp, #24]
     d94:	9805      	ldr	r0, [sp, #20]
     d96:	9e07      	ldr	r6, [sp, #28]
     d98:	3219      	adds	r2, #25
     d9a:	47b0      	blx	r6
     d9c:	3001      	adds	r0, #1
     d9e:	d09c      	beq.n	cda <_printf_i+0x152>
     da0:	3501      	adds	r5, #1
     da2:	68e3      	ldr	r3, [r4, #12]
     da4:	9a09      	ldr	r2, [sp, #36]	@ 0x24
     da6:	1a9b      	subs	r3, r3, r2
     da8:	42ab      	cmp	r3, r5
     daa:	dcf0      	bgt.n	d8e <_printf_i+0x206>
     dac:	e7e9      	b.n	d82 <_printf_i+0x1fa>
     dae:	2500      	movs	r5, #0
     db0:	e7f7      	b.n	da2 <_printf_i+0x21a>
     db2:	46c0      	nop			@ (mov r8, r8)
     db4:	000016a6 	andeq	r1, r0, r6, lsr #13
     db8:	000016b7 			@ <UNDEFINED> instruction: 0x000016b7

00000dbc <__sflush_r>:
     dbc:	b5f7      	push	{r0, r1, r2, r4, r5, r6, r7, lr}
     dbe:	220c      	movs	r2, #12
     dc0:	5e8b      	ldrsh	r3, [r1, r2]
     dc2:	0005      	movs	r5, r0
     dc4:	000c      	movs	r4, r1
     dc6:	071a      	lsls	r2, r3, #28
     dc8:	d461      	bmi.n	e8e <__sflush_r+0xd2>
     dca:	684a      	ldr	r2, [r1, #4]
     dcc:	2a00      	cmp	r2, #0
     dce:	dc02      	bgt.n	dd6 <__sflush_r+0x1a>
     dd0:	6c0a      	ldr	r2, [r1, #64]	@ 0x40
     dd2:	2a00      	cmp	r2, #0
     dd4:	dd42      	ble.n	e5c <__sflush_r+0xa0>
     dd6:	6ae7      	ldr	r7, [r4, #44]	@ 0x2c
     dd8:	2f00      	cmp	r7, #0
     dda:	d03f      	beq.n	e5c <__sflush_r+0xa0>
     ddc:	2200      	movs	r2, #0
     dde:	2080      	movs	r0, #128	@ 0x80
     de0:	682e      	ldr	r6, [r5, #0]
     de2:	602a      	str	r2, [r5, #0]
     de4:	001a      	movs	r2, r3
     de6:	0140      	lsls	r0, r0, #5
     de8:	6a21      	ldr	r1, [r4, #32]
     dea:	4002      	ands	r2, r0
     dec:	4203      	tst	r3, r0
     dee:	d027      	beq.n	e40 <__sflush_r+0x84>
     df0:	6d62      	ldr	r2, [r4, #84]	@ 0x54
     df2:	89a3      	ldrh	r3, [r4, #12]
     df4:	075b      	lsls	r3, r3, #29
     df6:	d506      	bpl.n	e06 <__sflush_r+0x4a>
     df8:	6863      	ldr	r3, [r4, #4]
     dfa:	1ad2      	subs	r2, r2, r3
     dfc:	6b63      	ldr	r3, [r4, #52]	@ 0x34
     dfe:	2b00      	cmp	r3, #0
     e00:	d001      	beq.n	e06 <__sflush_r+0x4a>
     e02:	6c23      	ldr	r3, [r4, #64]	@ 0x40
     e04:	1ad2      	subs	r2, r2, r3
     e06:	2300      	movs	r3, #0
     e08:	0028      	movs	r0, r5
     e0a:	6ae7      	ldr	r7, [r4, #44]	@ 0x2c
     e0c:	6a21      	ldr	r1, [r4, #32]
     e0e:	47b8      	blx	r7
     e10:	1c43      	adds	r3, r0, #1
     e12:	d025      	beq.n	e60 <__sflush_r+0xa4>
     e14:	2300      	movs	r3, #0
     e16:	6063      	str	r3, [r4, #4]
     e18:	6923      	ldr	r3, [r4, #16]
     e1a:	6023      	str	r3, [r4, #0]
     e1c:	89a3      	ldrh	r3, [r4, #12]
     e1e:	04db      	lsls	r3, r3, #19
     e20:	d500      	bpl.n	e24 <__sflush_r+0x68>
     e22:	6560      	str	r0, [r4, #84]	@ 0x54
     e24:	6b61      	ldr	r1, [r4, #52]	@ 0x34
     e26:	602e      	str	r6, [r5, #0]
     e28:	2900      	cmp	r1, #0
     e2a:	d017      	beq.n	e5c <__sflush_r+0xa0>
     e2c:	0023      	movs	r3, r4
     e2e:	3344      	adds	r3, #68	@ 0x44
     e30:	4299      	cmp	r1, r3
     e32:	d002      	beq.n	e3a <__sflush_r+0x7e>
     e34:	0028      	movs	r0, r5
     e36:	f000 f9b1 	bl	119c <_free_r>
     e3a:	2300      	movs	r3, #0
     e3c:	6363      	str	r3, [r4, #52]	@ 0x34
     e3e:	e00d      	b.n	e5c <__sflush_r+0xa0>
     e40:	2301      	movs	r3, #1
     e42:	0028      	movs	r0, r5
     e44:	47b8      	blx	r7
     e46:	0002      	movs	r2, r0
     e48:	1c43      	adds	r3, r0, #1
     e4a:	d1d2      	bne.n	df2 <__sflush_r+0x36>
     e4c:	682b      	ldr	r3, [r5, #0]
     e4e:	2b00      	cmp	r3, #0
     e50:	d0cf      	beq.n	df2 <__sflush_r+0x36>
     e52:	2b1d      	cmp	r3, #29
     e54:	d001      	beq.n	e5a <__sflush_r+0x9e>
     e56:	2b16      	cmp	r3, #22
     e58:	d131      	bne.n	ebe <__sflush_r+0x102>
     e5a:	602e      	str	r6, [r5, #0]
     e5c:	2000      	movs	r0, #0
     e5e:	e035      	b.n	ecc <__sflush_r+0x110>
     e60:	682b      	ldr	r3, [r5, #0]
     e62:	210c      	movs	r1, #12
     e64:	5e62      	ldrsh	r2, [r4, r1]
     e66:	2b00      	cmp	r3, #0
     e68:	d008      	beq.n	e7c <__sflush_r+0xc0>
     e6a:	2b1d      	cmp	r3, #29
     e6c:	d001      	beq.n	e72 <__sflush_r+0xb6>
     e6e:	2b16      	cmp	r3, #22
     e70:	d10a      	bne.n	e88 <__sflush_r+0xcc>
     e72:	2300      	movs	r3, #0
     e74:	6063      	str	r3, [r4, #4]
     e76:	6923      	ldr	r3, [r4, #16]
     e78:	6023      	str	r3, [r4, #0]
     e7a:	e7d3      	b.n	e24 <__sflush_r+0x68>
     e7c:	6063      	str	r3, [r4, #4]
     e7e:	6923      	ldr	r3, [r4, #16]
     e80:	6023      	str	r3, [r4, #0]
     e82:	04d2      	lsls	r2, r2, #19
     e84:	d4cd      	bmi.n	e22 <__sflush_r+0x66>
     e86:	e7cd      	b.n	e24 <__sflush_r+0x68>
     e88:	2340      	movs	r3, #64	@ 0x40
     e8a:	4313      	orrs	r3, r2
     e8c:	e01b      	b.n	ec6 <__sflush_r+0x10a>
     e8e:	690e      	ldr	r6, [r1, #16]
     e90:	2e00      	cmp	r6, #0
     e92:	d0e3      	beq.n	e5c <__sflush_r+0xa0>
     e94:	680f      	ldr	r7, [r1, #0]
     e96:	600e      	str	r6, [r1, #0]
     e98:	1bba      	subs	r2, r7, r6
     e9a:	9201      	str	r2, [sp, #4]
     e9c:	2200      	movs	r2, #0
     e9e:	079b      	lsls	r3, r3, #30
     ea0:	d100      	bne.n	ea4 <__sflush_r+0xe8>
     ea2:	694a      	ldr	r2, [r1, #20]
     ea4:	60a2      	str	r2, [r4, #8]
     ea6:	9b01      	ldr	r3, [sp, #4]
     ea8:	2b00      	cmp	r3, #0
     eaa:	ddd7      	ble.n	e5c <__sflush_r+0xa0>
     eac:	6aa3      	ldr	r3, [r4, #40]	@ 0x28
     eae:	0032      	movs	r2, r6
     eb0:	001f      	movs	r7, r3
     eb2:	0028      	movs	r0, r5
     eb4:	9b01      	ldr	r3, [sp, #4]
     eb6:	6a21      	ldr	r1, [r4, #32]
     eb8:	47b8      	blx	r7
     eba:	2800      	cmp	r0, #0
     ebc:	dc07      	bgt.n	ece <__sflush_r+0x112>
     ebe:	2340      	movs	r3, #64	@ 0x40
     ec0:	89a2      	ldrh	r2, [r4, #12]
     ec2:	4313      	orrs	r3, r2
     ec4:	b21b      	sxth	r3, r3
     ec6:	2001      	movs	r0, #1
     ec8:	81a3      	strh	r3, [r4, #12]
     eca:	4240      	negs	r0, r0
     ecc:	bdfe      	pop	{r1, r2, r3, r4, r5, r6, r7, pc}
     ece:	9b01      	ldr	r3, [sp, #4]
     ed0:	1836      	adds	r6, r6, r0
     ed2:	1a1b      	subs	r3, r3, r0
     ed4:	9301      	str	r3, [sp, #4]
     ed6:	e7e6      	b.n	ea6 <__sflush_r+0xea>

00000ed8 <_fflush_r>:
     ed8:	690b      	ldr	r3, [r1, #16]
     eda:	b570      	push	{r4, r5, r6, lr}
     edc:	0005      	movs	r5, r0
     ede:	000c      	movs	r4, r1
     ee0:	2b00      	cmp	r3, #0
     ee2:	d102      	bne.n	eea <_fflush_r+0x12>
     ee4:	2500      	movs	r5, #0
     ee6:	0028      	movs	r0, r5
     ee8:	bd70      	pop	{r4, r5, r6, pc}
     eea:	2800      	cmp	r0, #0
     eec:	d004      	beq.n	ef8 <_fflush_r+0x20>
     eee:	6a03      	ldr	r3, [r0, #32]
     ef0:	2b00      	cmp	r3, #0
     ef2:	d101      	bne.n	ef8 <_fflush_r+0x20>
     ef4:	f000 f8b6 	bl	1064 <__sinit>
     ef8:	220c      	movs	r2, #12
     efa:	5ea3      	ldrsh	r3, [r4, r2]
     efc:	2b00      	cmp	r3, #0
     efe:	d0f1      	beq.n	ee4 <_fflush_r+0xc>
     f00:	6e62      	ldr	r2, [r4, #100]	@ 0x64
     f02:	07d2      	lsls	r2, r2, #31
     f04:	d404      	bmi.n	f10 <_fflush_r+0x38>
     f06:	059b      	lsls	r3, r3, #22
     f08:	d402      	bmi.n	f10 <_fflush_r+0x38>
     f0a:	6da0      	ldr	r0, [r4, #88]	@ 0x58
     f0c:	f000 f991 	bl	1232 <__retarget_lock_acquire_recursive>
     f10:	0028      	movs	r0, r5
     f12:	0021      	movs	r1, r4
     f14:	f7ff ff52 	bl	dbc <__sflush_r>
     f18:	6e63      	ldr	r3, [r4, #100]	@ 0x64
     f1a:	0005      	movs	r5, r0
     f1c:	07db      	lsls	r3, r3, #31
     f1e:	d4e2      	bmi.n	ee6 <_fflush_r+0xe>
     f20:	89a3      	ldrh	r3, [r4, #12]
     f22:	059b      	lsls	r3, r3, #22
     f24:	d4df      	bmi.n	ee6 <_fflush_r+0xe>
     f26:	6da0      	ldr	r0, [r4, #88]	@ 0x58
     f28:	f000 f984 	bl	1234 <__retarget_lock_release_recursive>
     f2c:	e7db      	b.n	ee6 <_fflush_r+0xe>

00000f2e <memchr>:
     f2e:	b2c9      	uxtb	r1, r1
     f30:	1882      	adds	r2, r0, r2
     f32:	4290      	cmp	r0, r2
     f34:	d101      	bne.n	f3a <memchr+0xc>
     f36:	2000      	movs	r0, #0
     f38:	4770      	bx	lr
     f3a:	7803      	ldrb	r3, [r0, #0]
     f3c:	428b      	cmp	r3, r1
     f3e:	d0fb      	beq.n	f38 <memchr+0xa>
     f40:	3001      	adds	r0, #1
     f42:	e7f6      	b.n	f32 <memchr+0x4>

00000f44 <std>:
     f44:	2300      	movs	r3, #0
     f46:	b510      	push	{r4, lr}
     f48:	0004      	movs	r4, r0
     f4a:	6003      	str	r3, [r0, #0]
     f4c:	6043      	str	r3, [r0, #4]
     f4e:	6083      	str	r3, [r0, #8]
     f50:	8181      	strh	r1, [r0, #12]
     f52:	6643      	str	r3, [r0, #100]	@ 0x64
     f54:	81c2      	strh	r2, [r0, #14]
     f56:	6103      	str	r3, [r0, #16]
     f58:	6143      	str	r3, [r0, #20]
     f5a:	6183      	str	r3, [r0, #24]
     f5c:	0019      	movs	r1, r3
     f5e:	2208      	movs	r2, #8
     f60:	305c      	adds	r0, #92	@ 0x5c
     f62:	f000 f913 	bl	118c <memset>
     f66:	4b0b      	ldr	r3, [pc, #44]	@ (f94 <std+0x50>)
     f68:	6224      	str	r4, [r4, #32]
     f6a:	6263      	str	r3, [r4, #36]	@ 0x24
     f6c:	4b0a      	ldr	r3, [pc, #40]	@ (f98 <std+0x54>)
     f6e:	62a3      	str	r3, [r4, #40]	@ 0x28
     f70:	4b0a      	ldr	r3, [pc, #40]	@ (f9c <std+0x58>)
     f72:	62e3      	str	r3, [r4, #44]	@ 0x2c
     f74:	4b0a      	ldr	r3, [pc, #40]	@ (fa0 <std+0x5c>)
     f76:	6323      	str	r3, [r4, #48]	@ 0x30
     f78:	4b0a      	ldr	r3, [pc, #40]	@ (fa4 <std+0x60>)
     f7a:	429c      	cmp	r4, r3
     f7c:	d005      	beq.n	f8a <std+0x46>
     f7e:	4b0a      	ldr	r3, [pc, #40]	@ (fa8 <std+0x64>)
     f80:	429c      	cmp	r4, r3
     f82:	d002      	beq.n	f8a <std+0x46>
     f84:	4b09      	ldr	r3, [pc, #36]	@ (fac <std+0x68>)
     f86:	429c      	cmp	r4, r3
     f88:	d103      	bne.n	f92 <std+0x4e>
     f8a:	0020      	movs	r0, r4
     f8c:	3058      	adds	r0, #88	@ 0x58
     f8e:	f000 f94f 	bl	1230 <__retarget_lock_init_recursive>
     f92:	bd10      	pop	{r4, pc}
     f94:	00001095 	muleq	r0, r5, r0
     f98:	000010bd 	strheq	r1, [r0], -sp
     f9c:	000010f5 	strdeq	r1, [r0], -r5
     fa0:	00001121 	andeq	r1, r0, r1, lsr #2
     fa4:	1ffff068 	svcne	0x00fff068
     fa8:	1ffff0d0 	svcne	0x00fff0d0
     fac:	1ffff138 	svcne	0x00fff138

00000fb0 <stdio_exit_handler>:
     fb0:	b510      	push	{r4, lr}
     fb2:	4a03      	ldr	r2, [pc, #12]	@ (fc0 <stdio_exit_handler+0x10>)
     fb4:	4903      	ldr	r1, [pc, #12]	@ (fc4 <stdio_exit_handler+0x14>)
     fb6:	4804      	ldr	r0, [pc, #16]	@ (fc8 <stdio_exit_handler+0x18>)
     fb8:	f000 f8cc 	bl	1154 <_fwalk_sglue>
     fbc:	bd10      	pop	{r4, pc}
     fbe:	46c0      	nop			@ (mov r8, r8)
     fc0:	1ffff000 	svcne	0x00fff000
     fc4:	00000ed9 	ldrdeq	r0, [r0], -r9
     fc8:	1ffff00c 	svcne	0x00fff00c

00000fcc <cleanup_stdio>:
     fcc:	6841      	ldr	r1, [r0, #4]
     fce:	4b0b      	ldr	r3, [pc, #44]	@ (ffc <cleanup_stdio+0x30>)
     fd0:	b510      	push	{r4, lr}
     fd2:	0004      	movs	r4, r0
     fd4:	4299      	cmp	r1, r3
     fd6:	d001      	beq.n	fdc <cleanup_stdio+0x10>
     fd8:	f7ff ff7e 	bl	ed8 <_fflush_r>
     fdc:	68a1      	ldr	r1, [r4, #8]
     fde:	4b08      	ldr	r3, [pc, #32]	@ (1000 <cleanup_stdio+0x34>)
     fe0:	4299      	cmp	r1, r3
     fe2:	d002      	beq.n	fea <cleanup_stdio+0x1e>
     fe4:	0020      	movs	r0, r4
     fe6:	f7ff ff77 	bl	ed8 <_fflush_r>
     fea:	68e1      	ldr	r1, [r4, #12]
     fec:	4b05      	ldr	r3, [pc, #20]	@ (1004 <cleanup_stdio+0x38>)
     fee:	4299      	cmp	r1, r3
     ff0:	d002      	beq.n	ff8 <cleanup_stdio+0x2c>
     ff2:	0020      	movs	r0, r4
     ff4:	f7ff ff70 	bl	ed8 <_fflush_r>
     ff8:	bd10      	pop	{r4, pc}
     ffa:	46c0      	nop			@ (mov r8, r8)
     ffc:	1ffff068 	svcne	0x00fff068
    1000:	1ffff0d0 	svcne	0x00fff0d0
    1004:	1ffff138 	svcne	0x00fff138

00001008 <global_stdio_init.part.0>:
    1008:	b510      	push	{r4, lr}
    100a:	4b09      	ldr	r3, [pc, #36]	@ (1030 <global_stdio_init.part.0+0x28>)
    100c:	4a09      	ldr	r2, [pc, #36]	@ (1034 <global_stdio_init.part.0+0x2c>)
    100e:	2104      	movs	r1, #4
    1010:	601a      	str	r2, [r3, #0]
    1012:	4809      	ldr	r0, [pc, #36]	@ (1038 <global_stdio_init.part.0+0x30>)
    1014:	2200      	movs	r2, #0
    1016:	f7ff ff95 	bl	f44 <std>
    101a:	2201      	movs	r2, #1
    101c:	2109      	movs	r1, #9
    101e:	4807      	ldr	r0, [pc, #28]	@ (103c <global_stdio_init.part.0+0x34>)
    1020:	f7ff ff90 	bl	f44 <std>
    1024:	2202      	movs	r2, #2
    1026:	2112      	movs	r1, #18
    1028:	4805      	ldr	r0, [pc, #20]	@ (1040 <global_stdio_init.part.0+0x38>)
    102a:	f7ff ff8b 	bl	f44 <std>
    102e:	bd10      	pop	{r4, pc}
    1030:	1ffff1a0 	svcne	0x00fff1a0
    1034:	00000fb1 			@ <UNDEFINED> instruction: 0x00000fb1
    1038:	1ffff068 	svcne	0x00fff068
    103c:	1ffff0d0 	svcne	0x00fff0d0
    1040:	1ffff138 	svcne	0x00fff138

00001044 <__sfp_lock_acquire>:
    1044:	b510      	push	{r4, lr}
    1046:	4802      	ldr	r0, [pc, #8]	@ (1050 <__sfp_lock_acquire+0xc>)
    1048:	f000 f8f3 	bl	1232 <__retarget_lock_acquire_recursive>
    104c:	bd10      	pop	{r4, pc}
    104e:	46c0      	nop			@ (mov r8, r8)
    1050:	1ffff05d 	svcne	0x00fff05d

00001054 <__sfp_lock_release>:
    1054:	b510      	push	{r4, lr}
    1056:	4802      	ldr	r0, [pc, #8]	@ (1060 <__sfp_lock_release+0xc>)
    1058:	f000 f8ec 	bl	1234 <__retarget_lock_release_recursive>
    105c:	bd10      	pop	{r4, pc}
    105e:	46c0      	nop			@ (mov r8, r8)
    1060:	1ffff05d 	svcne	0x00fff05d

00001064 <__sinit>:
    1064:	b510      	push	{r4, lr}
    1066:	0004      	movs	r4, r0
    1068:	f7ff ffec 	bl	1044 <__sfp_lock_acquire>
    106c:	6a23      	ldr	r3, [r4, #32]
    106e:	2b00      	cmp	r3, #0
    1070:	d002      	beq.n	1078 <__sinit+0x14>
    1072:	f7ff ffef 	bl	1054 <__sfp_lock_release>
    1076:	bd10      	pop	{r4, pc}
    1078:	4b04      	ldr	r3, [pc, #16]	@ (108c <__sinit+0x28>)
    107a:	6223      	str	r3, [r4, #32]
    107c:	4b04      	ldr	r3, [pc, #16]	@ (1090 <__sinit+0x2c>)
    107e:	681b      	ldr	r3, [r3, #0]
    1080:	2b00      	cmp	r3, #0
    1082:	d1f6      	bne.n	1072 <__sinit+0xe>
    1084:	f7ff ffc0 	bl	1008 <global_stdio_init.part.0>
    1088:	e7f3      	b.n	1072 <__sinit+0xe>
    108a:	46c0      	nop			@ (mov r8, r8)
    108c:	00000fcd 	andeq	r0, r0, sp, asr #31
    1090:	1ffff1a0 	svcne	0x00fff1a0

00001094 <__sread>:
    1094:	b570      	push	{r4, r5, r6, lr}
    1096:	000c      	movs	r4, r1
    1098:	250e      	movs	r5, #14
    109a:	5f49      	ldrsh	r1, [r1, r5]
    109c:	f000 fa24 	bl	14e8 <_read_r>
    10a0:	2800      	cmp	r0, #0
    10a2:	db03      	blt.n	10ac <__sread+0x18>
    10a4:	6d63      	ldr	r3, [r4, #84]	@ 0x54
    10a6:	181b      	adds	r3, r3, r0
    10a8:	6563      	str	r3, [r4, #84]	@ 0x54
    10aa:	bd70      	pop	{r4, r5, r6, pc}
    10ac:	89a3      	ldrh	r3, [r4, #12]
    10ae:	4a02      	ldr	r2, [pc, #8]	@ (10b8 <__sread+0x24>)
    10b0:	4013      	ands	r3, r2
    10b2:	81a3      	strh	r3, [r4, #12]
    10b4:	e7f9      	b.n	10aa <__sread+0x16>
    10b6:	46c0      	nop			@ (mov r8, r8)
    10b8:	ffffefff 			@ <UNDEFINED> instruction: 0xffffefff

000010bc <__swrite>:
    10bc:	b5f8      	push	{r3, r4, r5, r6, r7, lr}
    10be:	001f      	movs	r7, r3
    10c0:	898b      	ldrh	r3, [r1, #12]
    10c2:	0005      	movs	r5, r0
    10c4:	000c      	movs	r4, r1
    10c6:	0016      	movs	r6, r2
    10c8:	05db      	lsls	r3, r3, #23
    10ca:	d505      	bpl.n	10d8 <__swrite+0x1c>
    10cc:	230e      	movs	r3, #14
    10ce:	5ec9      	ldrsh	r1, [r1, r3]
    10d0:	2200      	movs	r2, #0
    10d2:	2302      	movs	r3, #2
    10d4:	f000 f9f4 	bl	14c0 <_lseek_r>
    10d8:	89a3      	ldrh	r3, [r4, #12]
    10da:	4a05      	ldr	r2, [pc, #20]	@ (10f0 <__swrite+0x34>)
    10dc:	0028      	movs	r0, r5
    10de:	4013      	ands	r3, r2
    10e0:	81a3      	strh	r3, [r4, #12]
    10e2:	0032      	movs	r2, r6
    10e4:	230e      	movs	r3, #14
    10e6:	5ee1      	ldrsh	r1, [r4, r3]
    10e8:	003b      	movs	r3, r7
    10ea:	f000 f81f 	bl	112c <_write_r>
    10ee:	bdf8      	pop	{r3, r4, r5, r6, r7, pc}
    10f0:	ffffefff 			@ <UNDEFINED> instruction: 0xffffefff

000010f4 <__sseek>:
    10f4:	b570      	push	{r4, r5, r6, lr}
    10f6:	000c      	movs	r4, r1
    10f8:	250e      	movs	r5, #14
    10fa:	5f49      	ldrsh	r1, [r1, r5]
    10fc:	f000 f9e0 	bl	14c0 <_lseek_r>
    1100:	89a3      	ldrh	r3, [r4, #12]
    1102:	1c42      	adds	r2, r0, #1
    1104:	d103      	bne.n	110e <__sseek+0x1a>
    1106:	4a05      	ldr	r2, [pc, #20]	@ (111c <__sseek+0x28>)
    1108:	4013      	ands	r3, r2
    110a:	81a3      	strh	r3, [r4, #12]
    110c:	bd70      	pop	{r4, r5, r6, pc}
    110e:	2280      	movs	r2, #128	@ 0x80
    1110:	0152      	lsls	r2, r2, #5
    1112:	4313      	orrs	r3, r2
    1114:	81a3      	strh	r3, [r4, #12]
    1116:	6560      	str	r0, [r4, #84]	@ 0x54
    1118:	e7f8      	b.n	110c <__sseek+0x18>
    111a:	46c0      	nop			@ (mov r8, r8)
    111c:	ffffefff 			@ <UNDEFINED> instruction: 0xffffefff

00001120 <__sclose>:
    1120:	b510      	push	{r4, lr}
    1122:	230e      	movs	r3, #14
    1124:	5ec9      	ldrsh	r1, [r1, r3]
    1126:	f000 f8f3 	bl	1310 <_close_r>
    112a:	bd10      	pop	{r4, pc}

0000112c <_write_r>:
    112c:	b570      	push	{r4, r5, r6, lr}
    112e:	0004      	movs	r4, r0
    1130:	0008      	movs	r0, r1
    1132:	0011      	movs	r1, r2
    1134:	001a      	movs	r2, r3
    1136:	2300      	movs	r3, #0
    1138:	4d05      	ldr	r5, [pc, #20]	@ (1150 <_write_r+0x24>)
    113a:	602b      	str	r3, [r5, #0]
    113c:	f7ff faa0 	bl	680 <_write>
    1140:	1c43      	adds	r3, r0, #1
    1142:	d103      	bne.n	114c <_write_r+0x20>
    1144:	682b      	ldr	r3, [r5, #0]
    1146:	2b00      	cmp	r3, #0
    1148:	d000      	beq.n	114c <_write_r+0x20>
    114a:	6023      	str	r3, [r4, #0]
    114c:	bd70      	pop	{r4, r5, r6, pc}
    114e:	46c0      	nop			@ (mov r8, r8)
    1150:	1ffff1a4 	svcne	0x00fff1a4

00001154 <_fwalk_sglue>:
    1154:	b5f7      	push	{r0, r1, r2, r4, r5, r6, r7, lr}
    1156:	0014      	movs	r4, r2
    1158:	2600      	movs	r6, #0
    115a:	9000      	str	r0, [sp, #0]
    115c:	9101      	str	r1, [sp, #4]
    115e:	68a5      	ldr	r5, [r4, #8]
    1160:	6867      	ldr	r7, [r4, #4]
    1162:	3f01      	subs	r7, #1
    1164:	d504      	bpl.n	1170 <_fwalk_sglue+0x1c>
    1166:	6824      	ldr	r4, [r4, #0]
    1168:	2c00      	cmp	r4, #0
    116a:	d1f8      	bne.n	115e <_fwalk_sglue+0xa>
    116c:	0030      	movs	r0, r6
    116e:	bdfe      	pop	{r1, r2, r3, r4, r5, r6, r7, pc}
    1170:	89ab      	ldrh	r3, [r5, #12]
    1172:	2b01      	cmp	r3, #1
    1174:	d908      	bls.n	1188 <_fwalk_sglue+0x34>
    1176:	220e      	movs	r2, #14
    1178:	5eab      	ldrsh	r3, [r5, r2]
    117a:	3301      	adds	r3, #1
    117c:	d004      	beq.n	1188 <_fwalk_sglue+0x34>
    117e:	0029      	movs	r1, r5
    1180:	9800      	ldr	r0, [sp, #0]
    1182:	9b01      	ldr	r3, [sp, #4]
    1184:	4798      	blx	r3
    1186:	4306      	orrs	r6, r0
    1188:	3568      	adds	r5, #104	@ 0x68
    118a:	e7ea      	b.n	1162 <_fwalk_sglue+0xe>

0000118c <memset>:
    118c:	0003      	movs	r3, r0
    118e:	1882      	adds	r2, r0, r2
    1190:	4293      	cmp	r3, r2
    1192:	d100      	bne.n	1196 <memset+0xa>
    1194:	4770      	bx	lr
    1196:	7019      	strb	r1, [r3, #0]
    1198:	3301      	adds	r3, #1
    119a:	e7f9      	b.n	1190 <memset+0x4>

0000119c <_free_r>:
    119c:	b570      	push	{r4, r5, r6, lr}
    119e:	0005      	movs	r5, r0
    11a0:	1e0c      	subs	r4, r1, #0
    11a2:	d010      	beq.n	11c6 <_free_r+0x2a>
    11a4:	3c04      	subs	r4, #4
    11a6:	6823      	ldr	r3, [r4, #0]
    11a8:	2b00      	cmp	r3, #0
    11aa:	da00      	bge.n	11ae <_free_r+0x12>
    11ac:	18e4      	adds	r4, r4, r3
    11ae:	0028      	movs	r0, r5
    11b0:	f000 f9ae 	bl	1510 <__malloc_lock>
    11b4:	4a1d      	ldr	r2, [pc, #116]	@ (122c <_free_r+0x90>)
    11b6:	6813      	ldr	r3, [r2, #0]
    11b8:	2b00      	cmp	r3, #0
    11ba:	d105      	bne.n	11c8 <_free_r+0x2c>
    11bc:	6063      	str	r3, [r4, #4]
    11be:	6014      	str	r4, [r2, #0]
    11c0:	0028      	movs	r0, r5
    11c2:	f000 f9ad 	bl	1520 <__malloc_unlock>
    11c6:	bd70      	pop	{r4, r5, r6, pc}
    11c8:	42a3      	cmp	r3, r4
    11ca:	d908      	bls.n	11de <_free_r+0x42>
    11cc:	6820      	ldr	r0, [r4, #0]
    11ce:	1821      	adds	r1, r4, r0
    11d0:	428b      	cmp	r3, r1
    11d2:	d1f3      	bne.n	11bc <_free_r+0x20>
    11d4:	6819      	ldr	r1, [r3, #0]
    11d6:	685b      	ldr	r3, [r3, #4]
    11d8:	1809      	adds	r1, r1, r0
    11da:	6021      	str	r1, [r4, #0]
    11dc:	e7ee      	b.n	11bc <_free_r+0x20>
    11de:	001a      	movs	r2, r3
    11e0:	685b      	ldr	r3, [r3, #4]
    11e2:	2b00      	cmp	r3, #0
    11e4:	d001      	beq.n	11ea <_free_r+0x4e>
    11e6:	42a3      	cmp	r3, r4
    11e8:	d9f9      	bls.n	11de <_free_r+0x42>
    11ea:	6811      	ldr	r1, [r2, #0]
    11ec:	1850      	adds	r0, r2, r1
    11ee:	42a0      	cmp	r0, r4
    11f0:	d10b      	bne.n	120a <_free_r+0x6e>
    11f2:	6820      	ldr	r0, [r4, #0]
    11f4:	1809      	adds	r1, r1, r0
    11f6:	1850      	adds	r0, r2, r1
    11f8:	6011      	str	r1, [r2, #0]
    11fa:	4283      	cmp	r3, r0
    11fc:	d1e0      	bne.n	11c0 <_free_r+0x24>
    11fe:	6818      	ldr	r0, [r3, #0]
    1200:	685b      	ldr	r3, [r3, #4]
    1202:	1841      	adds	r1, r0, r1
    1204:	6011      	str	r1, [r2, #0]
    1206:	6053      	str	r3, [r2, #4]
    1208:	e7da      	b.n	11c0 <_free_r+0x24>
    120a:	42a0      	cmp	r0, r4
    120c:	d902      	bls.n	1214 <_free_r+0x78>
    120e:	230c      	movs	r3, #12
    1210:	602b      	str	r3, [r5, #0]
    1212:	e7d5      	b.n	11c0 <_free_r+0x24>
    1214:	6820      	ldr	r0, [r4, #0]
    1216:	1821      	adds	r1, r4, r0
    1218:	428b      	cmp	r3, r1
    121a:	d103      	bne.n	1224 <_free_r+0x88>
    121c:	6819      	ldr	r1, [r3, #0]
    121e:	685b      	ldr	r3, [r3, #4]
    1220:	1809      	adds	r1, r1, r0
    1222:	6021      	str	r1, [r4, #0]
    1224:	6063      	str	r3, [r4, #4]
    1226:	6054      	str	r4, [r2, #4]
    1228:	e7ca      	b.n	11c0 <_free_r+0x24>
    122a:	46c0      	nop			@ (mov r8, r8)
    122c:	1ffff060 	svcne	0x00fff060

00001230 <__retarget_lock_init_recursive>:
    1230:	4770      	bx	lr

00001232 <__retarget_lock_acquire_recursive>:
    1232:	4770      	bx	lr

00001234 <__retarget_lock_release_recursive>:
    1234:	4770      	bx	lr
	...

00001238 <__swhatbuf_r>:
    1238:	b570      	push	{r4, r5, r6, lr}
    123a:	000e      	movs	r6, r1
    123c:	001d      	movs	r5, r3
    123e:	230e      	movs	r3, #14
    1240:	5ec9      	ldrsh	r1, [r1, r3]
    1242:	0014      	movs	r4, r2
    1244:	b096      	sub	sp, #88	@ 0x58
    1246:	2900      	cmp	r1, #0
    1248:	da0c      	bge.n	1264 <__swhatbuf_r+0x2c>
    124a:	89b2      	ldrh	r2, [r6, #12]
    124c:	2380      	movs	r3, #128	@ 0x80
    124e:	0011      	movs	r1, r2
    1250:	4019      	ands	r1, r3
    1252:	421a      	tst	r2, r3
    1254:	d114      	bne.n	1280 <__swhatbuf_r+0x48>
    1256:	2380      	movs	r3, #128	@ 0x80
    1258:	00db      	lsls	r3, r3, #3
    125a:	2000      	movs	r0, #0
    125c:	6029      	str	r1, [r5, #0]
    125e:	6023      	str	r3, [r4, #0]
    1260:	b016      	add	sp, #88	@ 0x58
    1262:	bd70      	pop	{r4, r5, r6, pc}
    1264:	466a      	mov	r2, sp
    1266:	f000 f907 	bl	1478 <_fstat_r>
    126a:	2800      	cmp	r0, #0
    126c:	dbed      	blt.n	124a <__swhatbuf_r+0x12>
    126e:	23f0      	movs	r3, #240	@ 0xf0
    1270:	9901      	ldr	r1, [sp, #4]
    1272:	021b      	lsls	r3, r3, #8
    1274:	4019      	ands	r1, r3
    1276:	4b04      	ldr	r3, [pc, #16]	@ (1288 <__swhatbuf_r+0x50>)
    1278:	18c9      	adds	r1, r1, r3
    127a:	424b      	negs	r3, r1
    127c:	4159      	adcs	r1, r3
    127e:	e7ea      	b.n	1256 <__swhatbuf_r+0x1e>
    1280:	2100      	movs	r1, #0
    1282:	2340      	movs	r3, #64	@ 0x40
    1284:	e7e9      	b.n	125a <__swhatbuf_r+0x22>
    1286:	46c0      	nop			@ (mov r8, r8)
    1288:	ffffe000 			@ <UNDEFINED> instruction: 0xffffe000

0000128c <__smakebuf_r>:
    128c:	b5f0      	push	{r4, r5, r6, r7, lr}
    128e:	2602      	movs	r6, #2
    1290:	898b      	ldrh	r3, [r1, #12]
    1292:	0005      	movs	r5, r0
    1294:	000c      	movs	r4, r1
    1296:	b085      	sub	sp, #20
    1298:	4233      	tst	r3, r6
    129a:	d007      	beq.n	12ac <__smakebuf_r+0x20>
    129c:	0023      	movs	r3, r4
    129e:	3347      	adds	r3, #71	@ 0x47
    12a0:	6023      	str	r3, [r4, #0]
    12a2:	6123      	str	r3, [r4, #16]
    12a4:	2301      	movs	r3, #1
    12a6:	6163      	str	r3, [r4, #20]
    12a8:	b005      	add	sp, #20
    12aa:	bdf0      	pop	{r4, r5, r6, r7, pc}
    12ac:	ab03      	add	r3, sp, #12
    12ae:	aa02      	add	r2, sp, #8
    12b0:	f7ff ffc2 	bl	1238 <__swhatbuf_r>
    12b4:	9f02      	ldr	r7, [sp, #8]
    12b6:	9001      	str	r0, [sp, #4]
    12b8:	0039      	movs	r1, r7
    12ba:	0028      	movs	r0, r5
    12bc:	f000 f85c 	bl	1378 <_malloc_r>
    12c0:	2800      	cmp	r0, #0
    12c2:	d108      	bne.n	12d6 <__smakebuf_r+0x4a>
    12c4:	220c      	movs	r2, #12
    12c6:	5ea3      	ldrsh	r3, [r4, r2]
    12c8:	059a      	lsls	r2, r3, #22
    12ca:	d4ed      	bmi.n	12a8 <__smakebuf_r+0x1c>
    12cc:	2203      	movs	r2, #3
    12ce:	4393      	bics	r3, r2
    12d0:	431e      	orrs	r6, r3
    12d2:	81a6      	strh	r6, [r4, #12]
    12d4:	e7e2      	b.n	129c <__smakebuf_r+0x10>
    12d6:	2380      	movs	r3, #128	@ 0x80
    12d8:	89a2      	ldrh	r2, [r4, #12]
    12da:	6020      	str	r0, [r4, #0]
    12dc:	4313      	orrs	r3, r2
    12de:	81a3      	strh	r3, [r4, #12]
    12e0:	9b03      	ldr	r3, [sp, #12]
    12e2:	6120      	str	r0, [r4, #16]
    12e4:	6167      	str	r7, [r4, #20]
    12e6:	2b00      	cmp	r3, #0
    12e8:	d00c      	beq.n	1304 <__smakebuf_r+0x78>
    12ea:	0028      	movs	r0, r5
    12ec:	230e      	movs	r3, #14
    12ee:	5ee1      	ldrsh	r1, [r4, r3]
    12f0:	f000 f8d4 	bl	149c <_isatty_r>
    12f4:	2800      	cmp	r0, #0
    12f6:	d005      	beq.n	1304 <__smakebuf_r+0x78>
    12f8:	2303      	movs	r3, #3
    12fa:	89a2      	ldrh	r2, [r4, #12]
    12fc:	439a      	bics	r2, r3
    12fe:	3b02      	subs	r3, #2
    1300:	4313      	orrs	r3, r2
    1302:	81a3      	strh	r3, [r4, #12]
    1304:	89a3      	ldrh	r3, [r4, #12]
    1306:	9a01      	ldr	r2, [sp, #4]
    1308:	4313      	orrs	r3, r2
    130a:	81a3      	strh	r3, [r4, #12]
    130c:	e7cc      	b.n	12a8 <__smakebuf_r+0x1c>
	...

00001310 <_close_r>:
    1310:	2300      	movs	r3, #0
    1312:	b570      	push	{r4, r5, r6, lr}
    1314:	4d06      	ldr	r5, [pc, #24]	@ (1330 <_close_r+0x20>)
    1316:	0004      	movs	r4, r0
    1318:	0008      	movs	r0, r1
    131a:	602b      	str	r3, [r5, #0]
    131c:	f7ff f9a8 	bl	670 <_close>
    1320:	1c43      	adds	r3, r0, #1
    1322:	d103      	bne.n	132c <_close_r+0x1c>
    1324:	682b      	ldr	r3, [r5, #0]
    1326:	2b00      	cmp	r3, #0
    1328:	d000      	beq.n	132c <_close_r+0x1c>
    132a:	6023      	str	r3, [r4, #0]
    132c:	bd70      	pop	{r4, r5, r6, pc}
    132e:	46c0      	nop			@ (mov r8, r8)
    1330:	1ffff1a4 	svcne	0x00fff1a4

00001334 <sbrk_aligned>:
    1334:	b570      	push	{r4, r5, r6, lr}
    1336:	4e0f      	ldr	r6, [pc, #60]	@ (1374 <sbrk_aligned+0x40>)
    1338:	000d      	movs	r5, r1
    133a:	6831      	ldr	r1, [r6, #0]
    133c:	0004      	movs	r4, r0
    133e:	2900      	cmp	r1, #0
    1340:	d102      	bne.n	1348 <sbrk_aligned+0x14>
    1342:	f000 f8f5 	bl	1530 <_sbrk_r>
    1346:	6030      	str	r0, [r6, #0]
    1348:	0029      	movs	r1, r5
    134a:	0020      	movs	r0, r4
    134c:	f000 f8f0 	bl	1530 <_sbrk_r>
    1350:	1c43      	adds	r3, r0, #1
    1352:	d103      	bne.n	135c <sbrk_aligned+0x28>
    1354:	2501      	movs	r5, #1
    1356:	426d      	negs	r5, r5
    1358:	0028      	movs	r0, r5
    135a:	bd70      	pop	{r4, r5, r6, pc}
    135c:	2303      	movs	r3, #3
    135e:	1cc5      	adds	r5, r0, #3
    1360:	439d      	bics	r5, r3
    1362:	42a8      	cmp	r0, r5
    1364:	d0f8      	beq.n	1358 <sbrk_aligned+0x24>
    1366:	1a29      	subs	r1, r5, r0
    1368:	0020      	movs	r0, r4
    136a:	f000 f8e1 	bl	1530 <_sbrk_r>
    136e:	3001      	adds	r0, #1
    1370:	d1f2      	bne.n	1358 <sbrk_aligned+0x24>
    1372:	e7ef      	b.n	1354 <sbrk_aligned+0x20>
    1374:	1ffff064 	svcne	0x00fff064

00001378 <_malloc_r>:
    1378:	b5f7      	push	{r0, r1, r2, r4, r5, r6, r7, lr}
    137a:	2203      	movs	r2, #3
    137c:	1ccb      	adds	r3, r1, #3
    137e:	4393      	bics	r3, r2
    1380:	3308      	adds	r3, #8
    1382:	0005      	movs	r5, r0
    1384:	001f      	movs	r7, r3
    1386:	2b0c      	cmp	r3, #12
    1388:	d234      	bcs.n	13f4 <_malloc_r+0x7c>
    138a:	270c      	movs	r7, #12
    138c:	42b9      	cmp	r1, r7
    138e:	d833      	bhi.n	13f8 <_malloc_r+0x80>
    1390:	0028      	movs	r0, r5
    1392:	f000 f8bd 	bl	1510 <__malloc_lock>
    1396:	4e37      	ldr	r6, [pc, #220]	@ (1474 <_malloc_r+0xfc>)
    1398:	6833      	ldr	r3, [r6, #0]
    139a:	001c      	movs	r4, r3
    139c:	2c00      	cmp	r4, #0
    139e:	d12f      	bne.n	1400 <_malloc_r+0x88>
    13a0:	0039      	movs	r1, r7
    13a2:	0028      	movs	r0, r5
    13a4:	f7ff ffc6 	bl	1334 <sbrk_aligned>
    13a8:	0004      	movs	r4, r0
    13aa:	1c43      	adds	r3, r0, #1
    13ac:	d15f      	bne.n	146e <_malloc_r+0xf6>
    13ae:	6834      	ldr	r4, [r6, #0]
    13b0:	9400      	str	r4, [sp, #0]
    13b2:	9b00      	ldr	r3, [sp, #0]
    13b4:	2b00      	cmp	r3, #0
    13b6:	d14a      	bne.n	144e <_malloc_r+0xd6>
    13b8:	2c00      	cmp	r4, #0
    13ba:	d052      	beq.n	1462 <_malloc_r+0xea>
    13bc:	6823      	ldr	r3, [r4, #0]
    13be:	0028      	movs	r0, r5
    13c0:	18e3      	adds	r3, r4, r3
    13c2:	9900      	ldr	r1, [sp, #0]
    13c4:	9301      	str	r3, [sp, #4]
    13c6:	f000 f8b3 	bl	1530 <_sbrk_r>
    13ca:	9b01      	ldr	r3, [sp, #4]
    13cc:	4283      	cmp	r3, r0
    13ce:	d148      	bne.n	1462 <_malloc_r+0xea>
    13d0:	6823      	ldr	r3, [r4, #0]
    13d2:	0028      	movs	r0, r5
    13d4:	1aff      	subs	r7, r7, r3
    13d6:	0039      	movs	r1, r7
    13d8:	f7ff ffac 	bl	1334 <sbrk_aligned>
    13dc:	3001      	adds	r0, #1
    13de:	d040      	beq.n	1462 <_malloc_r+0xea>
    13e0:	6823      	ldr	r3, [r4, #0]
    13e2:	19db      	adds	r3, r3, r7
    13e4:	6023      	str	r3, [r4, #0]
    13e6:	6833      	ldr	r3, [r6, #0]
    13e8:	685a      	ldr	r2, [r3, #4]
    13ea:	2a00      	cmp	r2, #0
    13ec:	d133      	bne.n	1456 <_malloc_r+0xde>
    13ee:	9b00      	ldr	r3, [sp, #0]
    13f0:	6033      	str	r3, [r6, #0]
    13f2:	e019      	b.n	1428 <_malloc_r+0xb0>
    13f4:	2b00      	cmp	r3, #0
    13f6:	dac9      	bge.n	138c <_malloc_r+0x14>
    13f8:	230c      	movs	r3, #12
    13fa:	602b      	str	r3, [r5, #0]
    13fc:	2000      	movs	r0, #0
    13fe:	bdfe      	pop	{r1, r2, r3, r4, r5, r6, r7, pc}
    1400:	6821      	ldr	r1, [r4, #0]
    1402:	1bc9      	subs	r1, r1, r7
    1404:	d420      	bmi.n	1448 <_malloc_r+0xd0>
    1406:	290b      	cmp	r1, #11
    1408:	d90a      	bls.n	1420 <_malloc_r+0xa8>
    140a:	19e2      	adds	r2, r4, r7
    140c:	6027      	str	r7, [r4, #0]
    140e:	42a3      	cmp	r3, r4
    1410:	d104      	bne.n	141c <_malloc_r+0xa4>
    1412:	6032      	str	r2, [r6, #0]
    1414:	6863      	ldr	r3, [r4, #4]
    1416:	6011      	str	r1, [r2, #0]
    1418:	6053      	str	r3, [r2, #4]
    141a:	e005      	b.n	1428 <_malloc_r+0xb0>
    141c:	605a      	str	r2, [r3, #4]
    141e:	e7f9      	b.n	1414 <_malloc_r+0x9c>
    1420:	6862      	ldr	r2, [r4, #4]
    1422:	42a3      	cmp	r3, r4
    1424:	d10e      	bne.n	1444 <_malloc_r+0xcc>
    1426:	6032      	str	r2, [r6, #0]
    1428:	0028      	movs	r0, r5
    142a:	f000 f879 	bl	1520 <__malloc_unlock>
    142e:	0020      	movs	r0, r4
    1430:	2207      	movs	r2, #7
    1432:	300b      	adds	r0, #11
    1434:	1d23      	adds	r3, r4, #4
    1436:	4390      	bics	r0, r2
    1438:	1ac2      	subs	r2, r0, r3
    143a:	4298      	cmp	r0, r3
    143c:	d0df      	beq.n	13fe <_malloc_r+0x86>
    143e:	1a1b      	subs	r3, r3, r0
    1440:	50a3      	str	r3, [r4, r2]
    1442:	e7dc      	b.n	13fe <_malloc_r+0x86>
    1444:	605a      	str	r2, [r3, #4]
    1446:	e7ef      	b.n	1428 <_malloc_r+0xb0>
    1448:	0023      	movs	r3, r4
    144a:	6864      	ldr	r4, [r4, #4]
    144c:	e7a6      	b.n	139c <_malloc_r+0x24>
    144e:	9c00      	ldr	r4, [sp, #0]
    1450:	6863      	ldr	r3, [r4, #4]
    1452:	9300      	str	r3, [sp, #0]
    1454:	e7ad      	b.n	13b2 <_malloc_r+0x3a>
    1456:	001a      	movs	r2, r3
    1458:	685b      	ldr	r3, [r3, #4]
    145a:	42a3      	cmp	r3, r4
    145c:	d1fb      	bne.n	1456 <_malloc_r+0xde>
    145e:	2300      	movs	r3, #0
    1460:	e7da      	b.n	1418 <_malloc_r+0xa0>
    1462:	230c      	movs	r3, #12
    1464:	0028      	movs	r0, r5
    1466:	602b      	str	r3, [r5, #0]
    1468:	f000 f85a 	bl	1520 <__malloc_unlock>
    146c:	e7c6      	b.n	13fc <_malloc_r+0x84>
    146e:	6007      	str	r7, [r0, #0]
    1470:	e7da      	b.n	1428 <_malloc_r+0xb0>
    1472:	46c0      	nop			@ (mov r8, r8)
    1474:	1ffff060 	svcne	0x00fff060

00001478 <_fstat_r>:
    1478:	2300      	movs	r3, #0
    147a:	b570      	push	{r4, r5, r6, lr}
    147c:	4d06      	ldr	r5, [pc, #24]	@ (1498 <_fstat_r+0x20>)
    147e:	0004      	movs	r4, r0
    1480:	0008      	movs	r0, r1
    1482:	0011      	movs	r1, r2
    1484:	602b      	str	r3, [r5, #0]
    1486:	f7ff f8e9 	bl	65c <_fstat>
    148a:	1c43      	adds	r3, r0, #1
    148c:	d103      	bne.n	1496 <_fstat_r+0x1e>
    148e:	682b      	ldr	r3, [r5, #0]
    1490:	2b00      	cmp	r3, #0
    1492:	d000      	beq.n	1496 <_fstat_r+0x1e>
    1494:	6023      	str	r3, [r4, #0]
    1496:	bd70      	pop	{r4, r5, r6, pc}
    1498:	1ffff1a4 	svcne	0x00fff1a4

0000149c <_isatty_r>:
    149c:	2300      	movs	r3, #0
    149e:	b570      	push	{r4, r5, r6, lr}
    14a0:	4d06      	ldr	r5, [pc, #24]	@ (14bc <_isatty_r+0x20>)
    14a2:	0004      	movs	r4, r0
    14a4:	0008      	movs	r0, r1
    14a6:	602b      	str	r3, [r5, #0]
    14a8:	f7ff f8e5 	bl	676 <_isatty>
    14ac:	1c43      	adds	r3, r0, #1
    14ae:	d103      	bne.n	14b8 <_isatty_r+0x1c>
    14b0:	682b      	ldr	r3, [r5, #0]
    14b2:	2b00      	cmp	r3, #0
    14b4:	d000      	beq.n	14b8 <_isatty_r+0x1c>
    14b6:	6023      	str	r3, [r4, #0]
    14b8:	bd70      	pop	{r4, r5, r6, pc}
    14ba:	46c0      	nop			@ (mov r8, r8)
    14bc:	1ffff1a4 	svcne	0x00fff1a4

000014c0 <_lseek_r>:
    14c0:	b570      	push	{r4, r5, r6, lr}
    14c2:	0004      	movs	r4, r0
    14c4:	0008      	movs	r0, r1
    14c6:	0011      	movs	r1, r2
    14c8:	001a      	movs	r2, r3
    14ca:	2300      	movs	r3, #0
    14cc:	4d05      	ldr	r5, [pc, #20]	@ (14e4 <_lseek_r+0x24>)
    14ce:	602b      	str	r3, [r5, #0]
    14d0:	f7ff f8d3 	bl	67a <_lseek>
    14d4:	1c43      	adds	r3, r0, #1
    14d6:	d103      	bne.n	14e0 <_lseek_r+0x20>
    14d8:	682b      	ldr	r3, [r5, #0]
    14da:	2b00      	cmp	r3, #0
    14dc:	d000      	beq.n	14e0 <_lseek_r+0x20>
    14de:	6023      	str	r3, [r4, #0]
    14e0:	bd70      	pop	{r4, r5, r6, pc}
    14e2:	46c0      	nop			@ (mov r8, r8)
    14e4:	1ffff1a4 	svcne	0x00fff1a4

000014e8 <_read_r>:
    14e8:	b570      	push	{r4, r5, r6, lr}
    14ea:	0004      	movs	r4, r0
    14ec:	0008      	movs	r0, r1
    14ee:	0011      	movs	r1, r2
    14f0:	001a      	movs	r2, r3
    14f2:	2300      	movs	r3, #0
    14f4:	4d05      	ldr	r5, [pc, #20]	@ (150c <_read_r+0x24>)
    14f6:	602b      	str	r3, [r5, #0]
    14f8:	f7ff f8de 	bl	6b8 <_read>
    14fc:	1c43      	adds	r3, r0, #1
    14fe:	d103      	bne.n	1508 <_read_r+0x20>
    1500:	682b      	ldr	r3, [r5, #0]
    1502:	2b00      	cmp	r3, #0
    1504:	d000      	beq.n	1508 <_read_r+0x20>
    1506:	6023      	str	r3, [r4, #0]
    1508:	bd70      	pop	{r4, r5, r6, pc}
    150a:	46c0      	nop			@ (mov r8, r8)
    150c:	1ffff1a4 	svcne	0x00fff1a4

00001510 <__malloc_lock>:
    1510:	b510      	push	{r4, lr}
    1512:	4802      	ldr	r0, [pc, #8]	@ (151c <__malloc_lock+0xc>)
    1514:	f7ff fe8d 	bl	1232 <__retarget_lock_acquire_recursive>
    1518:	bd10      	pop	{r4, pc}
    151a:	46c0      	nop			@ (mov r8, r8)
    151c:	1ffff05c 	svcne	0x00fff05c

00001520 <__malloc_unlock>:
    1520:	b510      	push	{r4, lr}
    1522:	4802      	ldr	r0, [pc, #8]	@ (152c <__malloc_unlock+0xc>)
    1524:	f7ff fe86 	bl	1234 <__retarget_lock_release_recursive>
    1528:	bd10      	pop	{r4, pc}
    152a:	46c0      	nop			@ (mov r8, r8)
    152c:	1ffff05c 	svcne	0x00fff05c

00001530 <_sbrk_r>:
    1530:	2300      	movs	r3, #0
    1532:	b570      	push	{r4, r5, r6, lr}
    1534:	4d06      	ldr	r5, [pc, #24]	@ (1550 <_sbrk_r+0x20>)
    1536:	0004      	movs	r4, r0
    1538:	0008      	movs	r0, r1
    153a:	602b      	str	r3, [r5, #0]
    153c:	f7ff f87c 	bl	638 <_sbrk>
    1540:	1c43      	adds	r3, r0, #1
    1542:	d103      	bne.n	154c <_sbrk_r+0x1c>
    1544:	682b      	ldr	r3, [r5, #0]
    1546:	2b00      	cmp	r3, #0
    1548:	d000      	beq.n	154c <_sbrk_r+0x1c>
    154a:	6023      	str	r3, [r4, #0]
    154c:	bd70      	pop	{r4, r5, r6, pc}
    154e:	46c0      	nop			@ (mov r8, r8)
    1550:	1ffff1a4 	svcne	0x00fff1a4

00001554 <__gnu_thumb1_case_shi>:
    1554:	b403      	push	{r0, r1}
    1556:	4671      	mov	r1, lr
    1558:	0849      	lsrs	r1, r1, #1
    155a:	0040      	lsls	r0, r0, #1
    155c:	0049      	lsls	r1, r1, #1
    155e:	5e09      	ldrsh	r1, [r1, r0]
    1560:	0049      	lsls	r1, r1, #1
    1562:	448e      	add	lr, r1
    1564:	bc03      	pop	{r0, r1}
    1566:	4770      	bx	lr

00001568 <__udivsi3>:
    1568:	2200      	movs	r2, #0
    156a:	0843      	lsrs	r3, r0, #1
    156c:	428b      	cmp	r3, r1
    156e:	d374      	bcc.n	165a <__udivsi3+0xf2>
    1570:	0903      	lsrs	r3, r0, #4
    1572:	428b      	cmp	r3, r1
    1574:	d35f      	bcc.n	1636 <__udivsi3+0xce>
    1576:	0a03      	lsrs	r3, r0, #8
    1578:	428b      	cmp	r3, r1
    157a:	d344      	bcc.n	1606 <__udivsi3+0x9e>
    157c:	0b03      	lsrs	r3, r0, #12
    157e:	428b      	cmp	r3, r1
    1580:	d328      	bcc.n	15d4 <__udivsi3+0x6c>
    1582:	0c03      	lsrs	r3, r0, #16
    1584:	428b      	cmp	r3, r1
    1586:	d30d      	bcc.n	15a4 <__udivsi3+0x3c>
    1588:	22ff      	movs	r2, #255	@ 0xff
    158a:	0209      	lsls	r1, r1, #8
    158c:	ba12      	rev	r2, r2
    158e:	0c03      	lsrs	r3, r0, #16
    1590:	428b      	cmp	r3, r1
    1592:	d302      	bcc.n	159a <__udivsi3+0x32>
    1594:	1212      	asrs	r2, r2, #8
    1596:	0209      	lsls	r1, r1, #8
    1598:	d065      	beq.n	1666 <__udivsi3+0xfe>
    159a:	0b03      	lsrs	r3, r0, #12
    159c:	428b      	cmp	r3, r1
    159e:	d319      	bcc.n	15d4 <__udivsi3+0x6c>
    15a0:	e000      	b.n	15a4 <__udivsi3+0x3c>
    15a2:	0a09      	lsrs	r1, r1, #8
    15a4:	0bc3      	lsrs	r3, r0, #15
    15a6:	428b      	cmp	r3, r1
    15a8:	d301      	bcc.n	15ae <__udivsi3+0x46>
    15aa:	03cb      	lsls	r3, r1, #15
    15ac:	1ac0      	subs	r0, r0, r3
    15ae:	4152      	adcs	r2, r2
    15b0:	0b83      	lsrs	r3, r0, #14
    15b2:	428b      	cmp	r3, r1
    15b4:	d301      	bcc.n	15ba <__udivsi3+0x52>
    15b6:	038b      	lsls	r3, r1, #14
    15b8:	1ac0      	subs	r0, r0, r3
    15ba:	4152      	adcs	r2, r2
    15bc:	0b43      	lsrs	r3, r0, #13
    15be:	428b      	cmp	r3, r1
    15c0:	d301      	bcc.n	15c6 <__udivsi3+0x5e>
    15c2:	034b      	lsls	r3, r1, #13
    15c4:	1ac0      	subs	r0, r0, r3
    15c6:	4152      	adcs	r2, r2
    15c8:	0b03      	lsrs	r3, r0, #12
    15ca:	428b      	cmp	r3, r1
    15cc:	d301      	bcc.n	15d2 <__udivsi3+0x6a>
    15ce:	030b      	lsls	r3, r1, #12
    15d0:	1ac0      	subs	r0, r0, r3
    15d2:	4152      	adcs	r2, r2
    15d4:	0ac3      	lsrs	r3, r0, #11
    15d6:	428b      	cmp	r3, r1
    15d8:	d301      	bcc.n	15de <__udivsi3+0x76>
    15da:	02cb      	lsls	r3, r1, #11
    15dc:	1ac0      	subs	r0, r0, r3
    15de:	4152      	adcs	r2, r2
    15e0:	0a83      	lsrs	r3, r0, #10
    15e2:	428b      	cmp	r3, r1
    15e4:	d301      	bcc.n	15ea <__udivsi3+0x82>
    15e6:	028b      	lsls	r3, r1, #10
    15e8:	1ac0      	subs	r0, r0, r3
    15ea:	4152      	adcs	r2, r2
    15ec:	0a43      	lsrs	r3, r0, #9
    15ee:	428b      	cmp	r3, r1
    15f0:	d301      	bcc.n	15f6 <__udivsi3+0x8e>
    15f2:	024b      	lsls	r3, r1, #9
    15f4:	1ac0      	subs	r0, r0, r3
    15f6:	4152      	adcs	r2, r2
    15f8:	0a03      	lsrs	r3, r0, #8
    15fa:	428b      	cmp	r3, r1
    15fc:	d301      	bcc.n	1602 <__udivsi3+0x9a>
    15fe:	020b      	lsls	r3, r1, #8
    1600:	1ac0      	subs	r0, r0, r3
    1602:	4152      	adcs	r2, r2
    1604:	d2cd      	bcs.n	15a2 <__udivsi3+0x3a>
    1606:	09c3      	lsrs	r3, r0, #7
    1608:	428b      	cmp	r3, r1
    160a:	d301      	bcc.n	1610 <__udivsi3+0xa8>
    160c:	01cb      	lsls	r3, r1, #7
    160e:	1ac0      	subs	r0, r0, r3
    1610:	4152      	adcs	r2, r2
    1612:	0983      	lsrs	r3, r0, #6
    1614:	428b      	cmp	r3, r1
    1616:	d301      	bcc.n	161c <__udivsi3+0xb4>
    1618:	018b      	lsls	r3, r1, #6
    161a:	1ac0      	subs	r0, r0, r3
    161c:	4152      	adcs	r2, r2
    161e:	0943      	lsrs	r3, r0, #5
    1620:	428b      	cmp	r3, r1
    1622:	d301      	bcc.n	1628 <__udivsi3+0xc0>
    1624:	014b      	lsls	r3, r1, #5
    1626:	1ac0      	subs	r0, r0, r3
    1628:	4152      	adcs	r2, r2
    162a:	0903      	lsrs	r3, r0, #4
    162c:	428b      	cmp	r3, r1
    162e:	d301      	bcc.n	1634 <__udivsi3+0xcc>
    1630:	010b      	lsls	r3, r1, #4
    1632:	1ac0      	subs	r0, r0, r3
    1634:	4152      	adcs	r2, r2
    1636:	08c3      	lsrs	r3, r0, #3
    1638:	428b      	cmp	r3, r1
    163a:	d301      	bcc.n	1640 <__udivsi3+0xd8>
    163c:	00cb      	lsls	r3, r1, #3
    163e:	1ac0      	subs	r0, r0, r3
    1640:	4152      	adcs	r2, r2
    1642:	0883      	lsrs	r3, r0, #2
    1644:	428b      	cmp	r3, r1
    1646:	d301      	bcc.n	164c <__udivsi3+0xe4>
    1648:	008b      	lsls	r3, r1, #2
    164a:	1ac0      	subs	r0, r0, r3
    164c:	4152      	adcs	r2, r2
    164e:	0843      	lsrs	r3, r0, #1
    1650:	428b      	cmp	r3, r1
    1652:	d301      	bcc.n	1658 <__udivsi3+0xf0>
    1654:	004b      	lsls	r3, r1, #1
    1656:	1ac0      	subs	r0, r0, r3
    1658:	4152      	adcs	r2, r2
    165a:	1a41      	subs	r1, r0, r1
    165c:	d200      	bcs.n	1660 <__udivsi3+0xf8>
    165e:	4601      	mov	r1, r0
    1660:	4152      	adcs	r2, r2
    1662:	4610      	mov	r0, r2
    1664:	4770      	bx	lr
    1666:	e7ff      	b.n	1668 <__udivsi3+0x100>
    1668:	b501      	push	{r0, lr}
    166a:	2000      	movs	r0, #0
    166c:	f000 f806 	bl	167c <__aeabi_idiv0>
    1670:	bd02      	pop	{r1, pc}
    1672:	46c0      	nop			@ (mov r8, r8)

00001674 <__aeabi_uidivmod>:
    1674:	2900      	cmp	r1, #0
    1676:	d0f7      	beq.n	1668 <__udivsi3+0x100>
    1678:	e776      	b.n	1568 <__udivsi3>
    167a:	4770      	bx	lr

0000167c <__aeabi_idiv0>:
    167c:	4770      	bx	lr
    167e:	46c0      	nop			@ (mov r8, r8)
